	.file	"update_states.cpp"
	.text
	.section	.text._ZnwmPv,"axG",@progbits,_ZnwmPv,comdat
	.weak	_ZnwmPv
	.type	_ZnwmPv, @function
_ZnwmPv:
.LFB136:
	.cfi_startproc
	endbr64
	pushq	%rbp
	.cfi_def_cfa_offset 16
	.cfi_offset 6, -16
	movq	%rsp, %rbp
	.cfi_def_cfa_register 6
	movq	%rdi, -8(%rbp)
	movq	%rsi, -16(%rbp)
	movq	-16(%rbp), %rax
	popq	%rbp
	.cfi_def_cfa 7, 8
	ret
	.cfi_endproc
.LFE136:
	.size	_ZnwmPv, .-_ZnwmPv
	.section	.rodata
	.type	_ZStL19piecewise_construct, @object
	.size	_ZStL19piecewise_construct, 1
_ZStL19piecewise_construct:
	.zero	1
	.section	.text._ZSt17__size_to_integerm,"axG",@progbits,_ZSt17__size_to_integerm,comdat
	.weak	_ZSt17__size_to_integerm
	.type	_ZSt17__size_to_integerm, @function
_ZSt17__size_to_integerm:
.LFB445:
	.cfi_startproc
	endbr64
	pushq	%rbp
	.cfi_def_cfa_offset 16
	.cfi_offset 6, -16
	movq	%rsp, %rbp
	.cfi_def_cfa_register 6
	movq	%rdi, -8(%rbp)
	movq	-8(%rbp), %rax
	popq	%rbp
	.cfi_def_cfa 7, 8
	ret
	.cfi_endproc
.LFE445:
	.size	_ZSt17__size_to_integerm, .-_ZSt17__size_to_integerm
	.section	.rodata
	.type	_ZStL13allocator_arg, @object
	.size	_ZStL13allocator_arg, 1
_ZStL13allocator_arg:
	.zero	1
	.type	_ZStL6ignore, @object
	.size	_ZStL6ignore, 1
_ZStL6ignore:
	.zero	1
	.section	.text._ZNKSt9type_info4nameEv,"axG",@progbits,_ZNKSt9type_info4nameEv,comdat
	.align 2
	.weak	_ZNKSt9type_info4nameEv
	.type	_ZNKSt9type_info4nameEv, @function
_ZNKSt9type_info4nameEv:
.LFB781:
	.cfi_startproc
	endbr64
	pushq	%rbp
	.cfi_def_cfa_offset 16
	.cfi_offset 6, -16
	movq	%rsp, %rbp
	.cfi_def_cfa_register 6
	movq	%rdi, -8(%rbp)
	movq	-8(%rbp), %rax
	movq	8(%rax), %rax
	movzbl	(%rax), %eax
	cmpb	$42, %al
	jne	.L6
	movq	-8(%rbp), %rax
	movq	8(%rax), %rax
	addq	$1, %rax
	jmp	.L8
.L6:
	movq	-8(%rbp), %rax
	movq	8(%rax), %rax
.L8:
	popq	%rbp
	.cfi_def_cfa 7, 8
	ret
	.cfi_endproc
.LFE781:
	.size	_ZNKSt9type_info4nameEv, .-_ZNKSt9type_info4nameEv
	.section	.text._ZNKSt9type_infoeqERKS_,"axG",@progbits,_ZNKSt9type_infoeqERKS_,comdat
	.align 2
	.weak	_ZNKSt9type_infoeqERKS_
	.type	_ZNKSt9type_infoeqERKS_, @function
_ZNKSt9type_infoeqERKS_:
.LFB783:
	.cfi_startproc
	endbr64
	pushq	%rbp
	.cfi_def_cfa_offset 16
	.cfi_offset 6, -16
	movq	%rsp, %rbp
	.cfi_def_cfa_register 6
	subq	$16, %rsp
	movq	%rdi, -8(%rbp)
	movq	%rsi, -16(%rbp)
	movq	-8(%rbp), %rax
	movq	8(%rax), %rdx
	movq	-16(%rbp), %rax
	movq	8(%rax), %rax
	cmpq	%rax, %rdx
	je	.L10
	movq	-8(%rbp), %rax
	movq	8(%rax), %rax
	movzbl	(%rax), %eax
	cmpb	$42, %al
	je	.L11
	movq	-16(%rbp), %rax
	movq	8(%rax), %rdx
	movq	-8(%rbp), %rax
	movq	8(%rax), %rax
	movq	%rdx, %rsi
	movq	%rax, %rdi
	call	strcmp@PLT
	testl	%eax, %eax
	jne	.L11
.L10:
	movl	$1, %eax
	jmp	.L12
.L11:
	movl	$0, %eax
.L12:
	leave
	.cfi_def_cfa 7, 8
	ret
	.cfi_endproc
.LFE783:
	.size	_ZNKSt9type_infoeqERKS_, .-_ZNKSt9type_infoeqERKS_
	.section	.rodata
	.align 4
	.type	_ZN9__gnu_cxxL21__default_lock_policyE, @object
	.size	_ZN9__gnu_cxxL21__default_lock_policyE, 4
_ZN9__gnu_cxxL21__default_lock_policyE:
	.long	2
	.section	.text._ZNSt15_Rb_tree_headerC2Ev,"axG",@progbits,_ZNSt15_Rb_tree_headerC5Ev,comdat
	.align 2
	.weak	_ZNSt15_Rb_tree_headerC2Ev
	.type	_ZNSt15_Rb_tree_headerC2Ev, @function
_ZNSt15_Rb_tree_headerC2Ev:
.LFB2058:
	.cfi_startproc
	endbr64
	pushq	%rbp
	.cfi_def_cfa_offset 16
	.cfi_offset 6, -16
	movq	%rsp, %rbp
	.cfi_def_cfa_register 6
	subq	$16, %rsp
	movq	%rdi, -8(%rbp)
	movq	-8(%rbp), %rax
	movl	$0, (%rax)
	movq	-8(%rbp), %rax
	movq	%rax, %rdi
	call	_ZNSt15_Rb_tree_header8_M_resetEv
	nop
	leave
	.cfi_def_cfa 7, 8
	ret
	.cfi_endproc
.LFE2058:
	.size	_ZNSt15_Rb_tree_headerC2Ev, .-_ZNSt15_Rb_tree_headerC2Ev
	.weak	_ZNSt15_Rb_tree_headerC1Ev
	.set	_ZNSt15_Rb_tree_headerC1Ev,_ZNSt15_Rb_tree_headerC2Ev
	.section	.text._ZNSt15_Rb_tree_header8_M_resetEv,"axG",@progbits,_ZNSt15_Rb_tree_header8_M_resetEv,comdat
	.align 2
	.weak	_ZNSt15_Rb_tree_header8_M_resetEv
	.type	_ZNSt15_Rb_tree_header8_M_resetEv, @function
_ZNSt15_Rb_tree_header8_M_resetEv:
.LFB2064:
	.cfi_startproc
	endbr64
	pushq	%rbp
	.cfi_def_cfa_offset 16
	.cfi_offset 6, -16
	movq	%rsp, %rbp
	.cfi_def_cfa_register 6
	movq	%rdi, -8(%rbp)
	movq	-8(%rbp), %rax
	movq	$0, 8(%rax)
	movq	-8(%rbp), %rdx
	movq	-8(%rbp), %rax
	movq	%rdx, 16(%rax)
	movq	-8(%rbp), %rdx
	movq	-8(%rbp), %rax
	movq	%rdx, 24(%rax)
	movq	-8(%rbp), %rax
	movq	$0, 32(%rax)
	nop
	popq	%rbp
	.cfi_def_cfa 7, 8
	ret
	.cfi_endproc
.LFE2064:
	.size	_ZNSt15_Rb_tree_header8_M_resetEv, .-_ZNSt15_Rb_tree_header8_M_resetEv
	.section	.text._ZN3hsm11StateTypeIdC2Ev,"axG",@progbits,_ZN3hsm11StateTypeIdC5Ev,comdat
	.align 2
	.weak	_ZN3hsm11StateTypeIdC2Ev
	.type	_ZN3hsm11StateTypeIdC2Ev, @function
_ZN3hsm11StateTypeIdC2Ev:
.LFB2673:
	.cfi_startproc
	endbr64
	pushq	%rbp
	.cfi_def_cfa_offset 16
	.cfi_offset 6, -16
	movq	%rsp, %rbp
	.cfi_def_cfa_register 6
	movq	%rdi, -8(%rbp)
	movq	-8(%rbp), %rax
	movq	$0, (%rax)
	nop
	popq	%rbp
	.cfi_def_cfa 7, 8
	ret
	.cfi_endproc
.LFE2673:
	.size	_ZN3hsm11StateTypeIdC2Ev, .-_ZN3hsm11StateTypeIdC2Ev
	.weak	_ZN3hsm11StateTypeIdC1Ev
	.set	_ZN3hsm11StateTypeIdC1Ev,_ZN3hsm11StateTypeIdC2Ev
	.section	.text._ZN3hsm11StateTypeIdC2ERKSt9type_info,"axG",@progbits,_ZN3hsm11StateTypeIdC5ERKSt9type_info,comdat
	.align 2
	.weak	_ZN3hsm11StateTypeIdC2ERKSt9type_info
	.type	_ZN3hsm11StateTypeIdC2ERKSt9type_info, @function
_ZN3hsm11StateTypeIdC2ERKSt9type_info:
.LFB2676:
	.cfi_startproc
	endbr64
	pushq	%rbp
	.cfi_def_cfa_offset 16
	.cfi_offset 6, -16
	movq	%rsp, %rbp
	.cfi_def_cfa_register 6
	movq	%rdi, -8(%rbp)
	movq	%rsi, -16(%rbp)
	movq	-8(%rbp), %rax
	movq	-16(%rbp), %rdx
	movq	%rdx, (%rax)
	nop
	popq	%rbp
	.cfi_def_cfa 7, 8
	ret
	.cfi_endproc
.LFE2676:
	.size	_ZN3hsm11StateTypeIdC2ERKSt9type_info, .-_ZN3hsm11StateTypeIdC2ERKSt9type_info
	.weak	_ZN3hsm11StateTypeIdC1ERKSt9type_info
	.set	_ZN3hsm11StateTypeIdC1ERKSt9type_info,_ZN3hsm11StateTypeIdC2ERKSt9type_info
	.section	.rodata
	.align 8
.LC0:
	.string	"hsm_bool hsm::StateTypeId::operator==(const hsm::StateTypeId&) const"
	.align 8
.LC1:
	.string	"/home/pbk/Downloads/hsm/samples/hsm_book_samples/../../include/hsm.h"
	.align 8
.LC2:
	.string	"(mTypeInfo != 0) && \"mTypeInfo was not properly initialized\""
	.section	.text._ZNK3hsm11StateTypeIdeqERKS0_,"axG",@progbits,_ZNK3hsm11StateTypeIdeqERKS0_,comdat
	.align 2
	.weak	_ZNK3hsm11StateTypeIdeqERKS0_
	.type	_ZNK3hsm11StateTypeIdeqERKS0_, @function
_ZNK3hsm11StateTypeIdeqERKS0_:
.LFB2678:
	.cfi_startproc
	endbr64
	pushq	%rbp
	.cfi_def_cfa_offset 16
	.cfi_offset 6, -16
	movq	%rsp, %rbp
	.cfi_def_cfa_register 6
	subq	$16, %rsp
	movq	%rdi, -8(%rbp)
	movq	%rsi, -16(%rbp)
	movq	-8(%rbp), %rax
	movq	(%rax), %rax
	testq	%rax, %rax
	jne	.L19
	leaq	.LC0(%rip), %rax
	movq	%rax, %rcx
	movl	$163, %edx
	leaq	.LC1(%rip), %rax
	movq	%rax, %rsi
	leaq	.LC2(%rip), %rax
	movq	%rax, %rdi
	call	__assert_fail@PLT
.L19:
	movq	-16(%rbp), %rax
	movq	(%rax), %rdx
	movq	-8(%rbp), %rax
	movq	(%rax), %rax
	movq	%rdx, %rsi
	movq	%rax, %rdi
	call	_ZNKSt9type_infoeqERKS_
	leave
	.cfi_def_cfa 7, 8
	ret
	.cfi_endproc
.LFE2678:
	.size	_ZNK3hsm11StateTypeIdeqERKS0_, .-_ZNK3hsm11StateTypeIdeqERKS0_
	.section	.rodata
.LC3:
	.string	""
	.section	.text._ZN3hsm10TransitionC2Ev,"axG",@progbits,_ZN3hsm10TransitionC5Ev,comdat
	.align 2
	.weak	_ZN3hsm10TransitionC2Ev
	.type	_ZN3hsm10TransitionC2Ev, @function
_ZN3hsm10TransitionC2Ev:
.LFB2691:
	.cfi_startproc
	.cfi_personality 0x9b,DW.ref.__gxx_personality_v0
	.cfi_lsda 0x1b,.LLSDA2691
	endbr64
	pushq	%rbp
	.cfi_def_cfa_offset 16
	.cfi_offset 6, -16
	movq	%rsp, %rbp
	.cfi_def_cfa_register 6
	pushq	%rbx
	subq	$40, %rsp
	.cfi_offset 3, -24
	movq	%rdi, -40(%rbp)
	movq	%fs:40, %rax
	movq	%rax, -24(%rbp)
	xorl	%eax, %eax
	movq	-40(%rbp), %rax
	movl	$3, (%rax)
	movq	-40(%rbp), %rax
	movq	$0, 8(%rax)
	movq	-40(%rbp), %rax
	leaq	16(%rax), %rbx
	leaq	-25(%rbp), %rax
	movq	%rax, %rdi
	call	_ZNSaIcEC1Ev@PLT
	leaq	-25(%rbp), %rax
	movq	%rax, %rdx
	leaq	.LC3(%rip), %rax
	movq	%rax, %rsi
	movq	%rbx, %rdi
.LEHB0:
	call	_ZNSt7__cxx1112basic_stringIcSt11char_traitsIcESaIcEEC1EPKcRKS3_@PLT
.LEHE0:
	leaq	-25(%rbp), %rax
	movq	%rax, %rdi
	call	_ZNSaIcED1Ev@PLT
	nop
	movq	-24(%rbp), %rax
	subq	%fs:40, %rax
	je	.L23
	jmp	.L25
.L24:
	endbr64
	movq	%rax, %rbx
	leaq	-25(%rbp), %rax
	movq	%rax, %rdi
	call	_ZNSaIcED1Ev@PLT
	movq	%rbx, %rax
	movq	%rax, %rdi
.LEHB1:
	call	_Unwind_Resume@PLT
.LEHE1:
.L25:
	call	__stack_chk_fail@PLT
.L23:
	movq	-8(%rbp), %rbx
	leave
	.cfi_def_cfa 7, 8
	ret
	.cfi_endproc
.LFE2691:
	.globl	__gxx_personality_v0
	.section	.gcc_except_table._ZN3hsm10TransitionC2Ev,"aG",@progbits,_ZN3hsm10TransitionC5Ev,comdat
.LLSDA2691:
	.byte	0xff
	.byte	0xff
	.byte	0x1
	.uleb128 .LLSDACSE2691-.LLSDACSB2691
.LLSDACSB2691:
	.uleb128 .LEHB0-.LFB2691
	.uleb128 .LEHE0-.LEHB0
	.uleb128 .L24-.LFB2691
	.uleb128 0
	.uleb128 .LEHB1-.LFB2691
	.uleb128 .LEHE1-.LEHB1
	.uleb128 0
	.uleb128 0
.LLSDACSE2691:
	.section	.text._ZN3hsm10TransitionC2Ev,"axG",@progbits,_ZN3hsm10TransitionC5Ev,comdat
	.size	_ZN3hsm10TransitionC2Ev, .-_ZN3hsm10TransitionC2Ev
	.weak	_ZN3hsm10TransitionC1Ev
	.set	_ZN3hsm10TransitionC1Ev,_ZN3hsm10TransitionC2Ev
	.section	.text._ZN3hsm10TransitionC2ENS0_4TypeERKNS_12StateFactoryENSt7__cxx1112basic_stringIcSt11char_traitsIcESaIcEEE,"axG",@progbits,_ZN3hsm10TransitionC5ENS0_4TypeERKNS_12StateFactoryENSt7__cxx1112basic_stringIcSt11char_traitsIcESaIcEEE,comdat
	.align 2
	.weak	_ZN3hsm10TransitionC2ENS0_4TypeERKNS_12StateFactoryENSt7__cxx1112basic_stringIcSt11char_traitsIcESaIcEEE
	.type	_ZN3hsm10TransitionC2ENS0_4TypeERKNS_12StateFactoryENSt7__cxx1112basic_stringIcSt11char_traitsIcESaIcEEE, @function
_ZN3hsm10TransitionC2ENS0_4TypeERKNS_12StateFactoryENSt7__cxx1112basic_stringIcSt11char_traitsIcESaIcEEE:
.LFB2694:
	.cfi_startproc
	endbr64
	pushq	%rbp
	.cfi_def_cfa_offset 16
	.cfi_offset 6, -16
	movq	%rsp, %rbp
	.cfi_def_cfa_register 6
	subq	$32, %rsp
	movq	%rdi, -8(%rbp)
	movl	%esi, -12(%rbp)
	movq	%rdx, -24(%rbp)
	movq	%rcx, -32(%rbp)
	movq	-8(%rbp), %rax
	movl	-12(%rbp), %edx
	movl	%edx, (%rax)
	movq	-8(%rbp), %rax
	movq	-24(%rbp), %rdx
	movq	%rdx, 8(%rax)
	movq	-8(%rbp), %rax
	leaq	16(%rax), %rdx
	movq	-32(%rbp), %rax
	movq	%rax, %rsi
	movq	%rdx, %rdi
	call	_ZNSt7__cxx1112basic_stringIcSt11char_traitsIcESaIcEEC1ERKS4_@PLT
	nop
	leave
	.cfi_def_cfa 7, 8
	ret
	.cfi_endproc
.LFE2694:
	.size	_ZN3hsm10TransitionC2ENS0_4TypeERKNS_12StateFactoryENSt7__cxx1112basic_stringIcSt11char_traitsIcESaIcEEE, .-_ZN3hsm10TransitionC2ENS0_4TypeERKNS_12StateFactoryENSt7__cxx1112basic_stringIcSt11char_traitsIcESaIcEEE
	.weak	_ZN3hsm10TransitionC1ENS0_4TypeERKNS_12StateFactoryENSt7__cxx1112basic_stringIcSt11char_traitsIcESaIcEEE
	.set	_ZN3hsm10TransitionC1ENS0_4TypeERKNS_12StateFactoryENSt7__cxx1112basic_stringIcSt11char_traitsIcESaIcEEE,_ZN3hsm10TransitionC2ENS0_4TypeERKNS_12StateFactoryENSt7__cxx1112basic_stringIcSt11char_traitsIcESaIcEEE
	.section	.text._ZNK3hsm10Transition17GetTransitionTypeEv,"axG",@progbits,_ZNK3hsm10Transition17GetTransitionTypeEv,comdat
	.align 2
	.weak	_ZNK3hsm10Transition17GetTransitionTypeEv
	.type	_ZNK3hsm10Transition17GetTransitionTypeEv, @function
_ZNK3hsm10Transition17GetTransitionTypeEv:
.LFB2696:
	.cfi_startproc
	endbr64
	pushq	%rbp
	.cfi_def_cfa_offset 16
	.cfi_offset 6, -16
	movq	%rsp, %rbp
	.cfi_def_cfa_register 6
	movq	%rdi, -8(%rbp)
	movq	-8(%rbp), %rax
	movl	(%rax), %eax
	popq	%rbp
	.cfi_def_cfa 7, 8
	ret
	.cfi_endproc
.LFE2696:
	.size	_ZNK3hsm10Transition17GetTransitionTypeEv, .-_ZNK3hsm10Transition17GetTransitionTypeEv
	.section	.rodata
	.align 8
.LC4:
	.string	"hsm::StateTypeId hsm::Transition::GetTargetStateType() const"
.LC5:
	.string	"mStateFactory != 0"
	.section	.text._ZNK3hsm10Transition18GetTargetStateTypeEv,"axG",@progbits,_ZNK3hsm10Transition18GetTargetStateTypeEv,comdat
	.align 2
	.weak	_ZNK3hsm10Transition18GetTargetStateTypeEv
	.type	_ZNK3hsm10Transition18GetTargetStateTypeEv, @function
_ZNK3hsm10Transition18GetTargetStateTypeEv:
.LFB2697:
	.cfi_startproc
	endbr64
	pushq	%rbp
	.cfi_def_cfa_offset 16
	.cfi_offset 6, -16
	movq	%rsp, %rbp
	.cfi_def_cfa_register 6
	subq	$16, %rsp
	movq	%rdi, -8(%rbp)
	movq	-8(%rbp), %rax
	movq	8(%rax), %rax
	testq	%rax, %rax
	jne	.L30
	leaq	.LC4(%rip), %rax
	movq	%rax, %rcx
	movl	$328, %edx
	leaq	.LC1(%rip), %rax
	movq	%rax, %rsi
	leaq	.LC5(%rip), %rax
	movq	%rax, %rdi
	call	__assert_fail@PLT
.L30:
	movq	-8(%rbp), %rax
	movq	8(%rax), %rax
	movq	-8(%rbp), %rdx
	movq	8(%rdx), %rdx
	movq	(%rdx), %rdx
	movq	(%rdx), %rdx
	movq	%rax, %rdi
	call	*%rdx
	leave
	.cfi_def_cfa 7, 8
	ret
	.cfi_endproc
.LFE2697:
	.size	_ZNK3hsm10Transition18GetTargetStateTypeEv, .-_ZNK3hsm10Transition18GetTargetStateTypeEv
	.section	.rodata
	.align 8
.LC6:
	.string	"const hsm::StateFactory& hsm::Transition::GetStateFactory() const"
	.section	.text._ZNK3hsm10Transition15GetStateFactoryEv,"axG",@progbits,_ZNK3hsm10Transition15GetStateFactoryEv,comdat
	.align 2
	.weak	_ZNK3hsm10Transition15GetStateFactoryEv
	.type	_ZNK3hsm10Transition15GetStateFactoryEv, @function
_ZNK3hsm10Transition15GetStateFactoryEv:
.LFB2698:
	.cfi_startproc
	endbr64
	pushq	%rbp
	.cfi_def_cfa_offset 16
	.cfi_offset 6, -16
	movq	%rsp, %rbp
	.cfi_def_cfa_register 6
	subq	$16, %rsp
	movq	%rdi, -8(%rbp)
	movq	-8(%rbp), %rax
	movq	8(%rax), %rax
	testq	%rax, %rax
	jne	.L33
	leaq	.LC6(%rip), %rax
	movq	%rax, %rcx
	movl	$332, %edx
	leaq	.LC1(%rip), %rax
	movq	%rax, %rsi
	leaq	.LC5(%rip), %rax
	movq	%rax, %rdi
	call	__assert_fail@PLT
.L33:
	movq	-8(%rbp), %rax
	movq	8(%rax), %rax
	leave
	.cfi_def_cfa 7, 8
	ret
	.cfi_endproc
.LFE2698:
	.size	_ZNK3hsm10Transition15GetStateFactoryEv, .-_ZNK3hsm10Transition15GetStateFactoryEv
	.section	.text._ZNK3hsm10Transition4IsNoEv,"axG",@progbits,_ZNK3hsm10Transition4IsNoEv,comdat
	.align 2
	.weak	_ZNK3hsm10Transition4IsNoEv
	.type	_ZNK3hsm10Transition4IsNoEv, @function
_ZNK3hsm10Transition4IsNoEv:
.LFB2703:
	.cfi_startproc
	endbr64
	pushq	%rbp
	.cfi_def_cfa_offset 16
	.cfi_offset 6, -16
	movq	%rsp, %rbp
	.cfi_def_cfa_register 6
	movq	%rdi, -8(%rbp)
	movq	-8(%rbp), %rax
	movl	(%rax), %eax
	cmpl	$3, %eax
	sete	%al
	popq	%rbp
	.cfi_def_cfa 7, 8
	ret
	.cfi_endproc
.LFE2703:
	.size	_ZNK3hsm10Transition4IsNoEv, .-_ZNK3hsm10Transition4IsNoEv
	.section	.text._ZN3hsm10TransitionD2Ev,"axG",@progbits,_ZN3hsm10TransitionD5Ev,comdat
	.align 2
	.weak	_ZN3hsm10TransitionD2Ev
	.type	_ZN3hsm10TransitionD2Ev, @function
_ZN3hsm10TransitionD2Ev:
.LFB2706:
	.cfi_startproc
	endbr64
	pushq	%rbp
	.cfi_def_cfa_offset 16
	.cfi_offset 6, -16
	movq	%rsp, %rbp
	.cfi_def_cfa_register 6
	subq	$16, %rsp
	movq	%rdi, -8(%rbp)
	movq	-8(%rbp), %rax
	addq	$16, %rax
	movq	%rax, %rdi
	call	_ZNSt7__cxx1112basic_stringIcSt11char_traitsIcESaIcEED1Ev@PLT
	nop
	leave
	.cfi_def_cfa 7, 8
	ret
	.cfi_endproc
.LFE2706:
	.size	_ZN3hsm10TransitionD2Ev, .-_ZN3hsm10TransitionD2Ev
	.weak	_ZN3hsm10TransitionD1Ev
	.set	_ZN3hsm10TransitionD1Ev,_ZN3hsm10TransitionD2Ev
	.section	.text._ZN3hsm17SiblingTransitionERKNS_12StateFactoryENSt7__cxx1112basic_stringIcSt11char_traitsIcESaIcEEE,"axG",@progbits,_ZN3hsm17SiblingTransitionERKNS_12StateFactoryENSt7__cxx1112basic_stringIcSt11char_traitsIcESaIcEEE,comdat
	.weak	_ZN3hsm17SiblingTransitionERKNS_12StateFactoryENSt7__cxx1112basic_stringIcSt11char_traitsIcESaIcEEE
	.type	_ZN3hsm17SiblingTransitionERKNS_12StateFactoryENSt7__cxx1112basic_stringIcSt11char_traitsIcESaIcEEE, @function
_ZN3hsm17SiblingTransitionERKNS_12StateFactoryENSt7__cxx1112basic_stringIcSt11char_traitsIcESaIcEEE:
.LFB2704:
	.cfi_startproc
	.cfi_personality 0x9b,DW.ref.__gxx_personality_v0
	.cfi_lsda 0x1b,.LLSDA2704
	endbr64
	pushq	%rbp
	.cfi_def_cfa_offset 16
	.cfi_offset 6, -16
	movq	%rsp, %rbp
	.cfi_def_cfa_register 6
	pushq	%rbx
	subq	$88, %rsp
	.cfi_offset 3, -24
	movq	%rdi, -72(%rbp)
	movq	%rsi, -80(%rbp)
	movq	%rdx, -88(%rbp)
	movq	%fs:40, %rax
	movq	%rax, -24(%rbp)
	xorl	%eax, %eax
	movq	-88(%rbp), %rdx
	leaq	-64(%rbp), %rax
	movq	%rdx, %rsi
	movq	%rax, %rdi
.LEHB2:
	call	_ZNSt7__cxx1112basic_stringIcSt11char_traitsIcESaIcEEC1ERKS4_@PLT
.LEHE2:
	leaq	-64(%rbp), %rcx
	movq	-80(%rbp), %rdx
	movq	-72(%rbp), %rax
	movl	$0, %esi
	movq	%rax, %rdi
.LEHB3:
	call	_ZN3hsm10TransitionC1ENS0_4TypeERKNS_12StateFactoryENSt7__cxx1112basic_stringIcSt11char_traitsIcESaIcEEE
.LEHE3:
	leaq	-64(%rbp), %rax
	movq	%rax, %rdi
	call	_ZNSt7__cxx1112basic_stringIcSt11char_traitsIcESaIcEED1Ev@PLT
	movq	-24(%rbp), %rax
	subq	%fs:40, %rax
	je	.L41
	jmp	.L43
.L42:
	endbr64
	movq	%rax, %rbx
	leaq	-64(%rbp), %rax
	movq	%rax, %rdi
	call	_ZNSt7__cxx1112basic_stringIcSt11char_traitsIcESaIcEED1Ev@PLT
	movq	%rbx, %rax
	movq	%rax, %rdi
.LEHB4:
	call	_Unwind_Resume@PLT
.LEHE4:
.L43:
	call	__stack_chk_fail@PLT
.L41:
	movq	-72(%rbp), %rax
	movq	-8(%rbp), %rbx
	leave
	.cfi_def_cfa 7, 8
	ret
	.cfi_endproc
.LFE2704:
	.section	.gcc_except_table._ZN3hsm17SiblingTransitionERKNS_12StateFactoryENSt7__cxx1112basic_stringIcSt11char_traitsIcESaIcEEE,"aG",@progbits,_ZN3hsm17SiblingTransitionERKNS_12StateFactoryENSt7__cxx1112basic_stringIcSt11char_traitsIcESaIcEEE,comdat
.LLSDA2704:
	.byte	0xff
	.byte	0xff
	.byte	0x1
	.uleb128 .LLSDACSE2704-.LLSDACSB2704
.LLSDACSB2704:
	.uleb128 .LEHB2-.LFB2704
	.uleb128 .LEHE2-.LEHB2
	.uleb128 0
	.uleb128 0
	.uleb128 .LEHB3-.LFB2704
	.uleb128 .LEHE3-.LEHB3
	.uleb128 .L42-.LFB2704
	.uleb128 0
	.uleb128 .LEHB4-.LFB2704
	.uleb128 .LEHE4-.LEHB4
	.uleb128 0
	.uleb128 0
.LLSDACSE2704:
	.section	.text._ZN3hsm17SiblingTransitionERKNS_12StateFactoryENSt7__cxx1112basic_stringIcSt11char_traitsIcESaIcEEE,"axG",@progbits,_ZN3hsm17SiblingTransitionERKNS_12StateFactoryENSt7__cxx1112basic_stringIcSt11char_traitsIcESaIcEEE,comdat
	.size	_ZN3hsm17SiblingTransitionERKNS_12StateFactoryENSt7__cxx1112basic_stringIcSt11char_traitsIcESaIcEEE, .-_ZN3hsm17SiblingTransitionERKNS_12StateFactoryENSt7__cxx1112basic_stringIcSt11char_traitsIcESaIcEEE
	.section	.text._ZN3hsm12NoTransitionEv,"axG",@progbits,_ZN3hsm12NoTransitionEv,comdat
	.weak	_ZN3hsm12NoTransitionEv
	.type	_ZN3hsm12NoTransitionEv, @function
_ZN3hsm12NoTransitionEv:
.LFB2716:
	.cfi_startproc
	endbr64
	pushq	%rbp
	.cfi_def_cfa_offset 16
	.cfi_offset 6, -16
	movq	%rsp, %rbp
	.cfi_def_cfa_register 6
	subq	$16, %rsp
	movq	%rdi, -8(%rbp)
	movq	-8(%rbp), %rax
	movq	%rax, %rdi
	call	_ZN3hsm10TransitionC1Ev
	movq	-8(%rbp), %rax
	leave
	.cfi_def_cfa 7, 8
	ret
	.cfi_endproc
.LFE2716:
	.size	_ZN3hsm12NoTransitionEv, .-_ZN3hsm12NoTransitionEv
	.section	.text._ZN3hsm5StateC2Ev,"axG",@progbits,_ZN3hsm5StateC5Ev,comdat
	.align 2
	.weak	_ZN3hsm5StateC2Ev
	.type	_ZN3hsm5StateC2Ev, @function
_ZN3hsm5StateC2Ev:
.LFB2728:
	.cfi_startproc
	.cfi_personality 0x9b,DW.ref.__gxx_personality_v0
	.cfi_lsda 0x1b,.LLSDA2728
	endbr64
	pushq	%rbp
	.cfi_def_cfa_offset 16
	.cfi_offset 6, -16
	movq	%rsp, %rbp
	.cfi_def_cfa_register 6
	pushq	%rbx
	subq	$40, %rsp
	.cfi_offset 3, -24
	movq	%rdi, -40(%rbp)
	movq	%fs:40, %rax
	movq	%rax, -24(%rbp)
	xorl	%eax, %eax
	leaq	16+_ZTVN3hsm5StateE(%rip), %rdx
	movq	-40(%rbp), %rax
	movq	%rdx, (%rax)
	movq	-40(%rbp), %rax
	movq	$0, 8(%rax)
	movq	-40(%rbp), %rax
	movq	$0, 24(%rax)
	movq	-40(%rbp), %rax
	leaq	32(%rax), %rbx
	leaq	-25(%rbp), %rax
	movq	%rax, %rdi
	call	_ZNSaIPN3hsm18StateValueResetterEEC1Ev
	leaq	-25(%rbp), %rax
	movq	%rax, %rdx
	movl	$0, %esi
	movq	%rbx, %rdi
.LEHB5:
	call	_ZNSt6vectorIPN3hsm18StateValueResetterESaIS2_EEC1EmRKS3_
.LEHE5:
	leaq	-25(%rbp), %rax
	movq	%rax, %rdi
	call	_ZNSaIPN3hsm18StateValueResetterEED1Ev
	movq	-40(%rbp), %rax
	addq	$56, %rax
	movq	%rax, %rdi
	call	_ZN3hsm11StateTypeIdC1Ev
	movq	-40(%rbp), %rax
	movq	$0, 64(%rax)
	nop
	movq	-24(%rbp), %rax
	subq	%fs:40, %rax
	je	.L48
	jmp	.L50
.L49:
	endbr64
	movq	%rax, %rbx
	leaq	-25(%rbp), %rax
	movq	%rax, %rdi
	call	_ZNSaIPN3hsm18StateValueResetterEED1Ev
	movq	%rbx, %rax
	movq	%rax, %rdi
.LEHB6:
	call	_Unwind_Resume@PLT
.LEHE6:
.L50:
	call	__stack_chk_fail@PLT
.L48:
	movq	-8(%rbp), %rbx
	leave
	.cfi_def_cfa 7, 8
	ret
	.cfi_endproc
.LFE2728:
	.section	.gcc_except_table._ZN3hsm5StateC2Ev,"aG",@progbits,_ZN3hsm5StateC5Ev,comdat
.LLSDA2728:
	.byte	0xff
	.byte	0xff
	.byte	0x1
	.uleb128 .LLSDACSE2728-.LLSDACSB2728
.LLSDACSB2728:
	.uleb128 .LEHB5-.LFB2728
	.uleb128 .LEHE5-.LEHB5
	.uleb128 .L49-.LFB2728
	.uleb128 0
	.uleb128 .LEHB6-.LFB2728
	.uleb128 .LEHE6-.LEHB6
	.uleb128 0
	.uleb128 0
.LLSDACSE2728:
	.section	.text._ZN3hsm5StateC2Ev,"axG",@progbits,_ZN3hsm5StateC5Ev,comdat
	.size	_ZN3hsm5StateC2Ev, .-_ZN3hsm5StateC2Ev
	.weak	_ZN3hsm5StateC1Ev
	.set	_ZN3hsm5StateC1Ev,_ZN3hsm5StateC2Ev
	.section	.text._ZN3hsm5StateD2Ev,"axG",@progbits,_ZN3hsm5StateD5Ev,comdat
	.align 2
	.weak	_ZN3hsm5StateD2Ev
	.type	_ZN3hsm5StateD2Ev, @function
_ZN3hsm5StateD2Ev:
.LFB2731:
	.cfi_startproc
	endbr64
	pushq	%rbp
	.cfi_def_cfa_offset 16
	.cfi_offset 6, -16
	movq	%rsp, %rbp
	.cfi_def_cfa_register 6
	subq	$16, %rsp
	movq	%rdi, -8(%rbp)
	leaq	16+_ZTVN3hsm5StateE(%rip), %rdx
	movq	-8(%rbp), %rax
	movq	%rdx, (%rax)
	movq	-8(%rbp), %rax
	movq	%rax, %rdi
	call	_ZN3hsm5State16ResetStateValuesEv
	movq	-8(%rbp), %rax
	addq	$32, %rax
	movq	%rax, %rdi
	call	_ZNSt6vectorIPN3hsm18StateValueResetterESaIS2_EED1Ev
	nop
	leave
	.cfi_def_cfa 7, 8
	ret
	.cfi_endproc
.LFE2731:
	.size	_ZN3hsm5StateD2Ev, .-_ZN3hsm5StateD2Ev
	.weak	_ZN3hsm5StateD1Ev
	.set	_ZN3hsm5StateD1Ev,_ZN3hsm5StateD2Ev
	.section	.text._ZN3hsm5StateD0Ev,"axG",@progbits,_ZN3hsm5StateD5Ev,comdat
	.align 2
	.weak	_ZN3hsm5StateD0Ev
	.type	_ZN3hsm5StateD0Ev, @function
_ZN3hsm5StateD0Ev:
.LFB2733:
	.cfi_startproc
	endbr64
	pushq	%rbp
	.cfi_def_cfa_offset 16
	.cfi_offset 6, -16
	movq	%rsp, %rbp
	.cfi_def_cfa_register 6
	subq	$16, %rsp
	movq	%rdi, -8(%rbp)
	movq	-8(%rbp), %rax
	movq	%rax, %rdi
	call	_ZN3hsm5StateD1Ev
	movq	-8(%rbp), %rax
	movl	$72, %esi
	movq	%rax, %rdi
	call	_ZdlPvm@PLT
	leave
	.cfi_def_cfa 7, 8
	ret
	.cfi_endproc
.LFE2733:
	.size	_ZN3hsm5StateD0Ev, .-_ZN3hsm5StateD0Ev
	.section	.text._ZNK3hsm5State12GetStateTypeEv,"axG",@progbits,_ZNK3hsm5State12GetStateTypeEv,comdat
	.align 2
	.weak	_ZNK3hsm5State12GetStateTypeEv
	.type	_ZNK3hsm5State12GetStateTypeEv, @function
_ZNK3hsm5State12GetStateTypeEv:
.LFB2734:
	.cfi_startproc
	endbr64
	pushq	%rbp
	.cfi_def_cfa_offset 16
	.cfi_offset 6, -16
	movq	%rsp, %rbp
	.cfi_def_cfa_register 6
	movq	%rdi, -8(%rbp)
	movq	-8(%rbp), %rax
	movq	56(%rax), %rax
	popq	%rbp
	.cfi_def_cfa 7, 8
	ret
	.cfi_endproc
.LFE2734:
	.size	_ZNK3hsm5State12GetStateTypeEv, .-_ZNK3hsm5State12GetStateTypeEv
	.section	.text._ZNK3hsm5State17GetStateDebugNameEv,"axG",@progbits,_ZNK3hsm5State17GetStateDebugNameEv,comdat
	.align 2
	.weak	_ZNK3hsm5State17GetStateDebugNameEv
	.type	_ZNK3hsm5State17GetStateDebugNameEv, @function
_ZNK3hsm5State17GetStateDebugNameEv:
.LFB2735:
	.cfi_startproc
	endbr64
	pushq	%rbp
	.cfi_def_cfa_offset 16
	.cfi_offset 6, -16
	movq	%rsp, %rbp
	.cfi_def_cfa_register 6
	movq	%rdi, -8(%rbp)
	movq	-8(%rbp), %rax
	movq	64(%rax), %rax
	popq	%rbp
	.cfi_def_cfa 7, 8
	ret
	.cfi_endproc
.LFE2735:
	.size	_ZNK3hsm5State17GetStateDebugNameEv, .-_ZNK3hsm5State17GetStateDebugNameEv
	.section	.text._ZN3hsm5State7OnEnterEv,"axG",@progbits,_ZN3hsm5State7OnEnterEv,comdat
	.align 2
	.weak	_ZN3hsm5State7OnEnterEv
	.type	_ZN3hsm5State7OnEnterEv, @function
_ZN3hsm5State7OnEnterEv:
.LFB2744:
	.cfi_startproc
	endbr64
	pushq	%rbp
	.cfi_def_cfa_offset 16
	.cfi_offset 6, -16
	movq	%rsp, %rbp
	.cfi_def_cfa_register 6
	movq	%rdi, -8(%rbp)
	nop
	popq	%rbp
	.cfi_def_cfa 7, 8
	ret
	.cfi_endproc
.LFE2744:
	.size	_ZN3hsm5State7OnEnterEv, .-_ZN3hsm5State7OnEnterEv
	.section	.text._ZN3hsm5State6OnExitEv,"axG",@progbits,_ZN3hsm5State6OnExitEv,comdat
	.align 2
	.weak	_ZN3hsm5State6OnExitEv
	.type	_ZN3hsm5State6OnExitEv, @function
_ZN3hsm5State6OnExitEv:
.LFB2745:
	.cfi_startproc
	endbr64
	pushq	%rbp
	.cfi_def_cfa_offset 16
	.cfi_offset 6, -16
	movq	%rsp, %rbp
	.cfi_def_cfa_register 6
	movq	%rdi, -8(%rbp)
	nop
	popq	%rbp
	.cfi_def_cfa 7, 8
	ret
	.cfi_endproc
.LFE2745:
	.size	_ZN3hsm5State6OnExitEv, .-_ZN3hsm5State6OnExitEv
	.section	.text._ZN3hsm5State13GetTransitionEv,"axG",@progbits,_ZN3hsm5State13GetTransitionEv,comdat
	.align 2
	.weak	_ZN3hsm5State13GetTransitionEv
	.type	_ZN3hsm5State13GetTransitionEv, @function
_ZN3hsm5State13GetTransitionEv:
.LFB2746:
	.cfi_startproc
	endbr64
	pushq	%rbp
	.cfi_def_cfa_offset 16
	.cfi_offset 6, -16
	movq	%rsp, %rbp
	.cfi_def_cfa_register 6
	subq	$32, %rsp
	movq	%rdi, -24(%rbp)
	movq	%rsi, -32(%rbp)
	movq	%fs:40, %rax
	movq	%rax, -8(%rbp)
	xorl	%eax, %eax
	movq	-24(%rbp), %rax
	movq	%rax, %rdi
	call	_ZN3hsm12NoTransitionEv
	movq	-8(%rbp), %rax
	subq	%fs:40, %rax
	je	.L61
	call	__stack_chk_fail@PLT
.L61:
	movq	-24(%rbp), %rax
	leave
	.cfi_def_cfa 7, 8
	ret
	.cfi_endproc
.LFE2746:
	.size	_ZN3hsm5State13GetTransitionEv, .-_ZN3hsm5State13GetTransitionEv
	.section	.text._ZN3hsm5State6UpdateEv,"axG",@progbits,_ZN3hsm5State6UpdateEv,comdat
	.align 2
	.weak	_ZN3hsm5State6UpdateEv
	.type	_ZN3hsm5State6UpdateEv, @function
_ZN3hsm5State6UpdateEv:
.LFB2747:
	.cfi_startproc
	endbr64
	pushq	%rbp
	.cfi_def_cfa_offset 16
	.cfi_offset 6, -16
	movq	%rsp, %rbp
	.cfi_def_cfa_register 6
	movq	%rdi, -8(%rbp)
	nop
	popq	%rbp
	.cfi_def_cfa 7, 8
	ret
	.cfi_endproc
.LFE2747:
	.size	_ZN3hsm5State6UpdateEv, .-_ZN3hsm5State6UpdateEv
	.section	.text._ZN3hsm5State16ResetStateValuesEv,"axG",@progbits,_ZN3hsm5State16ResetStateValuesEv,comdat
	.align 2
	.weak	_ZN3hsm5State16ResetStateValuesEv
	.type	_ZN3hsm5State16ResetStateValuesEv, @function
_ZN3hsm5State16ResetStateValuesEv:
.LFB2749:
	.cfi_startproc
	endbr64
	pushq	%rbp
	.cfi_def_cfa_offset 16
	.cfi_offset 6, -16
	movq	%rsp, %rbp
	.cfi_def_cfa_register 6
	subq	$48, %rsp
	movq	%rdi, -40(%rbp)
	movq	%fs:40, %rax
	movq	%rax, -8(%rbp)
	xorl	%eax, %eax
	movq	-40(%rbp), %rax
	addq	$32, %rax
	movq	%rax, %rdi
	call	_ZNSt6vectorIPN3hsm18StateValueResetterESaIS2_EE5beginEv
	movq	%rax, -32(%rbp)
	movq	-40(%rbp), %rax
	addq	$32, %rax
	movq	%rax, %rdi
	call	_ZNSt6vectorIPN3hsm18StateValueResetterESaIS2_EE3endEv
	movq	%rax, -24(%rbp)
	leaq	-24(%rbp), %rax
	movq	%rax, -16(%rbp)
	jmp	.L64
.L66:
	leaq	-32(%rbp), %rax
	movq	%rax, %rdi
	call	_ZNK9__gnu_cxx17__normal_iteratorIPPN3hsm18StateValueResetterESt6vectorIS3_SaIS3_EEEdeEv
	movq	(%rax), %rax
	testq	%rax, %rax
	je	.L65
	movq	(%rax), %rdx
	addq	$8, %rdx
	movq	(%rdx), %rdx
	movq	%rax, %rdi
	call	*%rdx
.L65:
	leaq	-32(%rbp), %rax
	movq	%rax, %rdi
	call	_ZN9__gnu_cxx17__normal_iteratorIPPN3hsm18StateValueResetterESt6vectorIS3_SaIS3_EEEppEv
.L64:
	movq	-16(%rbp), %rdx
	leaq	-32(%rbp), %rax
	movq	%rdx, %rsi
	movq	%rax, %rdi
	call	_ZN9__gnu_cxxneIPPN3hsm18StateValueResetterESt6vectorIS3_SaIS3_EEEEbRKNS_17__normal_iteratorIT_T0_EESD_
	testb	%al, %al
	jne	.L66
	movq	-40(%rbp), %rax
	addq	$32, %rax
	movq	%rax, %rdi
	call	_ZNSt6vectorIPN3hsm18StateValueResetterESaIS2_EE5clearEv
	nop
	movq	-8(%rbp), %rax
	subq	%fs:40, %rax
	je	.L67
	call	__stack_chk_fail@PLT
.L67:
	leave
	.cfi_def_cfa 7, 8
	ret
	.cfi_endproc
.LFE2749:
	.size	_ZN3hsm5State16ResetStateValuesEv, .-_ZN3hsm5State16ResetStateValuesEv
	.section	.text._ZN3hsm12StateMachine18SetDebugTraceLevelENS_10TraceLevel4TypeE,"axG",@progbits,_ZN3hsm12StateMachine18SetDebugTraceLevelENS_10TraceLevel4TypeE,comdat
	.align 2
	.weak	_ZN3hsm12StateMachine18SetDebugTraceLevelENS_10TraceLevel4TypeE
	.type	_ZN3hsm12StateMachine18SetDebugTraceLevelENS_10TraceLevel4TypeE, @function
_ZN3hsm12StateMachine18SetDebugTraceLevelENS_10TraceLevel4TypeE:
.LFB2762:
	.cfi_startproc
	endbr64
	pushq	%rbp
	.cfi_def_cfa_offset 16
	.cfi_offset 6, -16
	movq	%rsp, %rbp
	.cfi_def_cfa_register 6
	movq	%rdi, -8(%rbp)
	movl	%esi, -12(%rbp)
	movq	-8(%rbp), %rax
	movl	-12(%rbp), %edx
	movl	%edx, 256(%rax)
	nop
	popq	%rbp
	.cfi_def_cfa 7, 8
	ret
	.cfi_endproc
.LFE2762:
	.size	_ZN3hsm12StateMachine18SetDebugTraceLevelENS_10TraceLevel4TypeE, .-_ZN3hsm12StateMachine18SetDebugTraceLevelENS_10TraceLevel4TypeE
	.section	.text._ZN3hsm12StateMachine8GetOwnerEv,"axG",@progbits,_ZN3hsm12StateMachine8GetOwnerEv,comdat
	.align 2
	.weak	_ZN3hsm12StateMachine8GetOwnerEv
	.type	_ZN3hsm12StateMachine8GetOwnerEv, @function
_ZN3hsm12StateMachine8GetOwnerEv:
.LFB2764:
	.cfi_startproc
	endbr64
	pushq	%rbp
	.cfi_def_cfa_offset 16
	.cfi_offset 6, -16
	movq	%rsp, %rbp
	.cfi_def_cfa_register 6
	movq	%rdi, -8(%rbp)
	movq	-8(%rbp), %rax
	movq	(%rax), %rax
	popq	%rbp
	.cfi_def_cfa 7, 8
	ret
	.cfi_endproc
.LFE2764:
	.size	_ZN3hsm12StateMachine8GetOwnerEv, .-_ZN3hsm12StateMachine8GetOwnerEv
	.section	.text._ZN3hsm12StateMachine17BeginOuterToInnerEv,"axG",@progbits,_ZN3hsm12StateMachine17BeginOuterToInnerEv,comdat
	.align 2
	.weak	_ZN3hsm12StateMachine17BeginOuterToInnerEv
	.type	_ZN3hsm12StateMachine17BeginOuterToInnerEv, @function
_ZN3hsm12StateMachine17BeginOuterToInnerEv:
.LFB2766:
	.cfi_startproc
	endbr64
	pushq	%rbp
	.cfi_def_cfa_offset 16
	.cfi_offset 6, -16
	movq	%rsp, %rbp
	.cfi_def_cfa_register 6
	subq	$16, %rsp
	movq	%rdi, -8(%rbp)
	movq	-8(%rbp), %rax
	addq	$56, %rax
	movq	%rax, %rdi
	call	_ZNSt6vectorIPN3hsm5StateESaIS2_EE5beginEv
	leave
	.cfi_def_cfa 7, 8
	ret
	.cfi_endproc
.LFE2766:
	.size	_ZN3hsm12StateMachine17BeginOuterToInnerEv, .-_ZN3hsm12StateMachine17BeginOuterToInnerEv
	.section	.text._ZN3hsm12StateMachine15EndOuterToInnerEv,"axG",@progbits,_ZN3hsm12StateMachine15EndOuterToInnerEv,comdat
	.align 2
	.weak	_ZN3hsm12StateMachine15EndOuterToInnerEv
	.type	_ZN3hsm12StateMachine15EndOuterToInnerEv, @function
_ZN3hsm12StateMachine15EndOuterToInnerEv:
.LFB2767:
	.cfi_startproc
	endbr64
	pushq	%rbp
	.cfi_def_cfa_offset 16
	.cfi_offset 6, -16
	movq	%rsp, %rbp
	.cfi_def_cfa_register 6
	subq	$16, %rsp
	movq	%rdi, -8(%rbp)
	movq	-8(%rbp), %rax
	addq	$56, %rax
	movq	%rax, %rdi
	call	_ZNSt6vectorIPN3hsm5StateESaIS2_EE3endEv
	leave
	.cfi_def_cfa 7, 8
	ret
	.cfi_endproc
.LFE2767:
	.size	_ZN3hsm12StateMachine15EndOuterToInnerEv, .-_ZN3hsm12StateMachine15EndOuterToInnerEv
	.section	.rodata
	.align 8
.LC7:
	.string	"void hsm::detail::InitState(hsm::State*, hsm::StateMachine*, size_t, const hsm::StateFactory&)"
.LC8:
	.string	"ownerStateMachine != 0"
	.section	.text._ZN3hsm6detail9InitStateEPNS_5StateEPNS_12StateMachineEmRKNS_12StateFactoryE,"axG",@progbits,_ZN3hsm6detail9InitStateEPNS_5StateEPNS_12StateMachineEmRKNS_12StateFactoryE,comdat
	.weak	_ZN3hsm6detail9InitStateEPNS_5StateEPNS_12StateMachineEmRKNS_12StateFactoryE
	.type	_ZN3hsm6detail9InitStateEPNS_5StateEPNS_12StateMachineEmRKNS_12StateFactoryE, @function
_ZN3hsm6detail9InitStateEPNS_5StateEPNS_12StateMachineEmRKNS_12StateFactoryE:
.LFB2794:
	.cfi_startproc
	endbr64
	pushq	%rbp
	.cfi_def_cfa_offset 16
	.cfi_offset 6, -16
	movq	%rsp, %rbp
	.cfi_def_cfa_register 6
	pushq	%rbx
	subq	$40, %rsp
	.cfi_offset 3, -24
	movq	%rdi, -24(%rbp)
	movq	%rsi, -32(%rbp)
	movq	%rdx, -40(%rbp)
	movq	%rcx, -48(%rbp)
	cmpq	$0, -32(%rbp)
	jne	.L76
	leaq	.LC7(%rip), %rax
	movq	%rax, %rcx
	movl	$991, %edx
	leaq	.LC1(%rip), %rax
	movq	%rax, %rsi
	leaq	.LC8(%rip), %rax
	movq	%rax, %rdi
	call	__assert_fail@PLT
.L76:
	movq	-24(%rbp), %rax
	movq	-32(%rbp), %rdx
	movq	%rdx, 8(%rax)
	movq	-32(%rbp), %rax
	movq	%rax, %rdi
	call	_ZN3hsm12StateMachine8GetOwnerEv
	movq	-24(%rbp), %rdx
	movq	%rax, 16(%rdx)
	movq	-24(%rbp), %rax
	movq	-40(%rbp), %rdx
	movq	%rdx, 24(%rax)
	movq	-48(%rbp), %rax
	movq	(%rax), %rax
	movq	(%rax), %rdx
	movq	-24(%rbp), %rbx
	movq	-48(%rbp), %rax
	movq	%rax, %rdi
	call	*%rdx
	movq	%rax, 56(%rbx)
	movq	-48(%rbp), %rax
	movq	(%rax), %rax
	addq	$8, %rax
	movq	(%rax), %rdx
	movq	-48(%rbp), %rax
	movq	%rax, %rdi
	call	*%rdx
	movq	-24(%rbp), %rdx
	movq	%rax, 64(%rdx)
	nop
	movq	-8(%rbp), %rbx
	leave
	.cfi_def_cfa 7, 8
	ret
	.cfi_endproc
.LFE2794:
	.size	_ZN3hsm6detail9InitStateEPNS_5StateEPNS_12StateMachineEmRKNS_12StateFactoryE, .-_ZN3hsm6detail9InitStateEPNS_5StateEPNS_12StateMachineEmRKNS_12StateFactoryE
	.section	.text._ZN3hsm6detail11CreateStateERKNS_10TransitionEPNS_12StateMachineEm,"axG",@progbits,_ZN3hsm6detail11CreateStateERKNS_10TransitionEPNS_12StateMachineEm,comdat
	.weak	_ZN3hsm6detail11CreateStateERKNS_10TransitionEPNS_12StateMachineEm
	.type	_ZN3hsm6detail11CreateStateERKNS_10TransitionEPNS_12StateMachineEm, @function
_ZN3hsm6detail11CreateStateERKNS_10TransitionEPNS_12StateMachineEm:
.LFB2795:
	.cfi_startproc
	endbr64
	pushq	%rbp
	.cfi_def_cfa_offset 16
	.cfi_offset 6, -16
	movq	%rsp, %rbp
	.cfi_def_cfa_register 6
	subq	$48, %rsp
	movq	%rdi, -24(%rbp)
	movq	%rsi, -32(%rbp)
	movq	%rdx, -40(%rbp)
	movq	-24(%rbp), %rax
	movq	%rax, %rdi
	call	_ZNK3hsm10Transition15GetStateFactoryEv
	movq	(%rax), %rdx
	addq	$16, %rdx
	movq	(%rdx), %rdx
	movq	%rax, %rdi
	call	*%rdx
	movq	%rax, -8(%rbp)
	movq	-24(%rbp), %rax
	movq	%rax, %rdi
	call	_ZNK3hsm10Transition15GetStateFactoryEv
	movq	%rax, %rcx
	movq	-40(%rbp), %rdx
	movq	-32(%rbp), %rsi
	movq	-8(%rbp), %rax
	movq	%rax, %rdi
	call	_ZN3hsm6detail9InitStateEPNS_5StateEPNS_12StateMachineEmRKNS_12StateFactoryE
	movq	-8(%rbp), %rax
	leave
	.cfi_def_cfa 7, 8
	ret
	.cfi_endproc
.LFE2795:
	.size	_ZN3hsm6detail11CreateStateERKNS_10TransitionEPNS_12StateMachineEm, .-_ZN3hsm6detail11CreateStateERKNS_10TransitionEPNS_12StateMachineEm
	.section	.text._ZN3hsm6detail12DestroyStateEPNS_5StateE,"axG",@progbits,_ZN3hsm6detail12DestroyStateEPNS_5StateE,comdat
	.weak	_ZN3hsm6detail12DestroyStateEPNS_5StateE
	.type	_ZN3hsm6detail12DestroyStateEPNS_5StateE, @function
_ZN3hsm6detail12DestroyStateEPNS_5StateE:
.LFB2796:
	.cfi_startproc
	endbr64
	pushq	%rbp
	.cfi_def_cfa_offset 16
	.cfi_offset 6, -16
	movq	%rsp, %rbp
	.cfi_def_cfa_register 6
	subq	$16, %rsp
	movq	%rdi, -8(%rbp)
	movq	-8(%rbp), %rax
	testq	%rax, %rax
	je	.L81
	movq	(%rax), %rdx
	addq	$8, %rdx
	movq	(%rdx), %rdx
	movq	%rax, %rdi
	call	*%rdx
.L81:
	nop
	leave
	.cfi_def_cfa 7, 8
	ret
	.cfi_endproc
.LFE2796:
	.size	_ZN3hsm6detail12DestroyStateEPNS_5StateE, .-_ZN3hsm6detail12DestroyStateEPNS_5StateE
	.section	.text._ZN3hsm6detail18InvokeStateOnEnterERKNS_10TransitionEPNS_5StateE,"axG",@progbits,_ZN3hsm6detail18InvokeStateOnEnterERKNS_10TransitionEPNS_5StateE,comdat
	.weak	_ZN3hsm6detail18InvokeStateOnEnterERKNS_10TransitionEPNS_5StateE
	.type	_ZN3hsm6detail18InvokeStateOnEnterERKNS_10TransitionEPNS_5StateE, @function
_ZN3hsm6detail18InvokeStateOnEnterERKNS_10TransitionEPNS_5StateE:
.LFB2797:
	.cfi_startproc
	endbr64
	pushq	%rbp
	.cfi_def_cfa_offset 16
	.cfi_offset 6, -16
	movq	%rsp, %rbp
	.cfi_def_cfa_register 6
	subq	$16, %rsp
	movq	%rdi, -8(%rbp)
	movq	%rsi, -16(%rbp)
	movq	-16(%rbp), %rax
	movq	(%rax), %rax
	addq	$16, %rax
	movq	(%rax), %rdx
	movq	-16(%rbp), %rax
	movq	%rax, %rdi
	call	*%rdx
	nop
	leave
	.cfi_def_cfa 7, 8
	ret
	.cfi_endproc
.LFE2797:
	.size	_ZN3hsm6detail18InvokeStateOnEnterERKNS_10TransitionEPNS_5StateE, .-_ZN3hsm6detail18InvokeStateOnEnterERKNS_10TransitionEPNS_5StateE
	.section	.text._ZN3hsm6detail17InvokeStateOnExitEPNS_5StateE,"axG",@progbits,_ZN3hsm6detail17InvokeStateOnExitEPNS_5StateE,comdat
	.weak	_ZN3hsm6detail17InvokeStateOnExitEPNS_5StateE
	.type	_ZN3hsm6detail17InvokeStateOnExitEPNS_5StateE, @function
_ZN3hsm6detail17InvokeStateOnExitEPNS_5StateE:
.LFB2798:
	.cfi_startproc
	endbr64
	pushq	%rbp
	.cfi_def_cfa_offset 16
	.cfi_offset 6, -16
	movq	%rsp, %rbp
	.cfi_def_cfa_register 6
	subq	$16, %rsp
	movq	%rdi, -8(%rbp)
	movq	-8(%rbp), %rax
	movq	(%rax), %rax
	addq	$24, %rax
	movq	(%rax), %rdx
	movq	-8(%rbp), %rax
	movq	%rax, %rdi
	call	*%rdx
	nop
	leave
	.cfi_def_cfa 7, 8
	ret
	.cfi_endproc
.LFE2798:
	.size	_ZN3hsm6detail17InvokeStateOnExitEPNS_5StateE, .-_ZN3hsm6detail17InvokeStateOnExitEPNS_5StateE
	.section	.text._ZNSt12_Vector_baseIPN3hsm5StateESaIS2_EE12_Vector_implD2Ev,"axG",@progbits,_ZNSt12_Vector_baseIPN3hsm5StateESaIS2_EE12_Vector_implD5Ev,comdat
	.align 2
	.weak	_ZNSt12_Vector_baseIPN3hsm5StateESaIS2_EE12_Vector_implD2Ev
	.type	_ZNSt12_Vector_baseIPN3hsm5StateESaIS2_EE12_Vector_implD2Ev, @function
_ZNSt12_Vector_baseIPN3hsm5StateESaIS2_EE12_Vector_implD2Ev:
.LFB2804:
	.cfi_startproc
	endbr64
	pushq	%rbp
	.cfi_def_cfa_offset 16
	.cfi_offset 6, -16
	movq	%rsp, %rbp
	.cfi_def_cfa_register 6
	subq	$16, %rsp
	movq	%rdi, -8(%rbp)
	movq	-8(%rbp), %rax
	movq	%rax, %rdi
	call	_ZNSaIPN3hsm5StateEED2Ev
	nop
	leave
	.cfi_def_cfa 7, 8
	ret
	.cfi_endproc
.LFE2804:
	.size	_ZNSt12_Vector_baseIPN3hsm5StateESaIS2_EE12_Vector_implD2Ev, .-_ZNSt12_Vector_baseIPN3hsm5StateESaIS2_EE12_Vector_implD2Ev
	.weak	_ZNSt12_Vector_baseIPN3hsm5StateESaIS2_EE12_Vector_implD1Ev
	.set	_ZNSt12_Vector_baseIPN3hsm5StateESaIS2_EE12_Vector_implD1Ev,_ZNSt12_Vector_baseIPN3hsm5StateESaIS2_EE12_Vector_implD2Ev
	.section	.text._ZNSt12_Vector_baseIPN3hsm5StateESaIS2_EEC2Ev,"axG",@progbits,_ZNSt12_Vector_baseIPN3hsm5StateESaIS2_EEC5Ev,comdat
	.align 2
	.weak	_ZNSt12_Vector_baseIPN3hsm5StateESaIS2_EEC2Ev
	.type	_ZNSt12_Vector_baseIPN3hsm5StateESaIS2_EEC2Ev, @function
_ZNSt12_Vector_baseIPN3hsm5StateESaIS2_EEC2Ev:
.LFB2806:
	.cfi_startproc
	endbr64
	pushq	%rbp
	.cfi_def_cfa_offset 16
	.cfi_offset 6, -16
	movq	%rsp, %rbp
	.cfi_def_cfa_register 6
	subq	$16, %rsp
	movq	%rdi, -8(%rbp)
	movq	-8(%rbp), %rax
	movq	%rax, %rdi
	call	_ZNSt12_Vector_baseIPN3hsm5StateESaIS2_EE12_Vector_implC1Ev
	nop
	leave
	.cfi_def_cfa 7, 8
	ret
	.cfi_endproc
.LFE2806:
	.size	_ZNSt12_Vector_baseIPN3hsm5StateESaIS2_EEC2Ev, .-_ZNSt12_Vector_baseIPN3hsm5StateESaIS2_EEC2Ev
	.weak	_ZNSt12_Vector_baseIPN3hsm5StateESaIS2_EEC1Ev
	.set	_ZNSt12_Vector_baseIPN3hsm5StateESaIS2_EEC1Ev,_ZNSt12_Vector_baseIPN3hsm5StateESaIS2_EEC2Ev
	.section	.text._ZNSt6vectorIPN3hsm5StateESaIS2_EEC2Ev,"axG",@progbits,_ZNSt6vectorIPN3hsm5StateESaIS2_EEC5Ev,comdat
	.align 2
	.weak	_ZNSt6vectorIPN3hsm5StateESaIS2_EEC2Ev
	.type	_ZNSt6vectorIPN3hsm5StateESaIS2_EEC2Ev, @function
_ZNSt6vectorIPN3hsm5StateESaIS2_EEC2Ev:
.LFB2808:
	.cfi_startproc
	endbr64
	pushq	%rbp
	.cfi_def_cfa_offset 16
	.cfi_offset 6, -16
	movq	%rsp, %rbp
	.cfi_def_cfa_register 6
	subq	$16, %rsp
	movq	%rdi, -8(%rbp)
	movq	-8(%rbp), %rax
	movq	%rax, %rdi
	call	_ZNSt12_Vector_baseIPN3hsm5StateESaIS2_EEC2Ev
	nop
	leave
	.cfi_def_cfa 7, 8
	ret
	.cfi_endproc
.LFE2808:
	.size	_ZNSt6vectorIPN3hsm5StateESaIS2_EEC2Ev, .-_ZNSt6vectorIPN3hsm5StateESaIS2_EEC2Ev
	.weak	_ZNSt6vectorIPN3hsm5StateESaIS2_EEC1Ev
	.set	_ZNSt6vectorIPN3hsm5StateESaIS2_EEC1Ev,_ZNSt6vectorIPN3hsm5StateESaIS2_EEC2Ev
	.section	.text._ZNSt8_Rb_treeIPKN3hsm12StateFactoryESt4pairIKS3_S3_ESt10_Select1stIS6_ESt4lessIS3_ESaIS6_EE13_Rb_tree_implISA_Lb1EED2Ev,"axG",@progbits,_ZNSt8_Rb_treeIPKN3hsm12StateFactoryESt4pairIKS3_S3_ESt10_Select1stIS6_ESt4lessIS3_ESaIS6_EE13_Rb_tree_implISA_Lb1EED5Ev,comdat
	.align 2
	.weak	_ZNSt8_Rb_treeIPKN3hsm12StateFactoryESt4pairIKS3_S3_ESt10_Select1stIS6_ESt4lessIS3_ESaIS6_EE13_Rb_tree_implISA_Lb1EED2Ev
	.type	_ZNSt8_Rb_treeIPKN3hsm12StateFactoryESt4pairIKS3_S3_ESt10_Select1stIS6_ESt4lessIS3_ESaIS6_EE13_Rb_tree_implISA_Lb1EED2Ev, @function
_ZNSt8_Rb_treeIPKN3hsm12StateFactoryESt4pairIKS3_S3_ESt10_Select1stIS6_ESt4lessIS3_ESaIS6_EE13_Rb_tree_implISA_Lb1EED2Ev:
.LFB2816:
	.cfi_startproc
	endbr64
	pushq	%rbp
	.cfi_def_cfa_offset 16
	.cfi_offset 6, -16
	movq	%rsp, %rbp
	.cfi_def_cfa_register 6
	subq	$16, %rsp
	movq	%rdi, -8(%rbp)
	movq	-8(%rbp), %rax
	movq	%rax, %rdi
	call	_ZNSaISt13_Rb_tree_nodeISt4pairIKPKN3hsm12StateFactoryES4_EEED2Ev
	nop
	leave
	.cfi_def_cfa 7, 8
	ret
	.cfi_endproc
.LFE2816:
	.size	_ZNSt8_Rb_treeIPKN3hsm12StateFactoryESt4pairIKS3_S3_ESt10_Select1stIS6_ESt4lessIS3_ESaIS6_EE13_Rb_tree_implISA_Lb1EED2Ev, .-_ZNSt8_Rb_treeIPKN3hsm12StateFactoryESt4pairIKS3_S3_ESt10_Select1stIS6_ESt4lessIS3_ESaIS6_EE13_Rb_tree_implISA_Lb1EED2Ev
	.weak	_ZNSt8_Rb_treeIPKN3hsm12StateFactoryESt4pairIKS3_S3_ESt10_Select1stIS6_ESt4lessIS3_ESaIS6_EE13_Rb_tree_implISA_Lb1EED1Ev
	.set	_ZNSt8_Rb_treeIPKN3hsm12StateFactoryESt4pairIKS3_S3_ESt10_Select1stIS6_ESt4lessIS3_ESaIS6_EE13_Rb_tree_implISA_Lb1EED1Ev,_ZNSt8_Rb_treeIPKN3hsm12StateFactoryESt4pairIKS3_S3_ESt10_Select1stIS6_ESt4lessIS3_ESaIS6_EE13_Rb_tree_implISA_Lb1EED2Ev
	.section	.text._ZNSt8_Rb_treeIPKN3hsm12StateFactoryESt4pairIKS3_S3_ESt10_Select1stIS6_ESt4lessIS3_ESaIS6_EEC2Ev,"axG",@progbits,_ZNSt8_Rb_treeIPKN3hsm12StateFactoryESt4pairIKS3_S3_ESt10_Select1stIS6_ESt4lessIS3_ESaIS6_EEC5Ev,comdat
	.align 2
	.weak	_ZNSt8_Rb_treeIPKN3hsm12StateFactoryESt4pairIKS3_S3_ESt10_Select1stIS6_ESt4lessIS3_ESaIS6_EEC2Ev
	.type	_ZNSt8_Rb_treeIPKN3hsm12StateFactoryESt4pairIKS3_S3_ESt10_Select1stIS6_ESt4lessIS3_ESaIS6_EEC2Ev, @function
_ZNSt8_Rb_treeIPKN3hsm12StateFactoryESt4pairIKS3_S3_ESt10_Select1stIS6_ESt4lessIS3_ESaIS6_EEC2Ev:
.LFB2818:
	.cfi_startproc
	endbr64
	pushq	%rbp
	.cfi_def_cfa_offset 16
	.cfi_offset 6, -16
	movq	%rsp, %rbp
	.cfi_def_cfa_register 6
	subq	$16, %rsp
	movq	%rdi, -8(%rbp)
	movq	-8(%rbp), %rax
	movq	%rax, %rdi
	call	_ZNSt8_Rb_treeIPKN3hsm12StateFactoryESt4pairIKS3_S3_ESt10_Select1stIS6_ESt4lessIS3_ESaIS6_EE13_Rb_tree_implISA_Lb1EEC1Ev
	nop
	leave
	.cfi_def_cfa 7, 8
	ret
	.cfi_endproc
.LFE2818:
	.size	_ZNSt8_Rb_treeIPKN3hsm12StateFactoryESt4pairIKS3_S3_ESt10_Select1stIS6_ESt4lessIS3_ESaIS6_EEC2Ev, .-_ZNSt8_Rb_treeIPKN3hsm12StateFactoryESt4pairIKS3_S3_ESt10_Select1stIS6_ESt4lessIS3_ESaIS6_EEC2Ev
	.weak	_ZNSt8_Rb_treeIPKN3hsm12StateFactoryESt4pairIKS3_S3_ESt10_Select1stIS6_ESt4lessIS3_ESaIS6_EEC1Ev
	.set	_ZNSt8_Rb_treeIPKN3hsm12StateFactoryESt4pairIKS3_S3_ESt10_Select1stIS6_ESt4lessIS3_ESaIS6_EEC1Ev,_ZNSt8_Rb_treeIPKN3hsm12StateFactoryESt4pairIKS3_S3_ESt10_Select1stIS6_ESt4lessIS3_ESaIS6_EEC2Ev
	.section	.text._ZNSt3mapIPKN3hsm12StateFactoryES3_St4lessIS3_ESaISt4pairIKS3_S3_EEEC2Ev,"axG",@progbits,_ZNSt3mapIPKN3hsm12StateFactoryES3_St4lessIS3_ESaISt4pairIKS3_S3_EEEC5Ev,comdat
	.align 2
	.weak	_ZNSt3mapIPKN3hsm12StateFactoryES3_St4lessIS3_ESaISt4pairIKS3_S3_EEEC2Ev
	.type	_ZNSt3mapIPKN3hsm12StateFactoryES3_St4lessIS3_ESaISt4pairIKS3_S3_EEEC2Ev, @function
_ZNSt3mapIPKN3hsm12StateFactoryES3_St4lessIS3_ESaISt4pairIKS3_S3_EEEC2Ev:
.LFB2820:
	.cfi_startproc
	endbr64
	pushq	%rbp
	.cfi_def_cfa_offset 16
	.cfi_offset 6, -16
	movq	%rsp, %rbp
	.cfi_def_cfa_register 6
	subq	$16, %rsp
	movq	%rdi, -8(%rbp)
	movq	-8(%rbp), %rax
	movq	%rax, %rdi
	call	_ZNSt8_Rb_treeIPKN3hsm12StateFactoryESt4pairIKS3_S3_ESt10_Select1stIS6_ESt4lessIS3_ESaIS6_EEC1Ev
	nop
	leave
	.cfi_def_cfa 7, 8
	ret
	.cfi_endproc
.LFE2820:
	.size	_ZNSt3mapIPKN3hsm12StateFactoryES3_St4lessIS3_ESaISt4pairIKS3_S3_EEEC2Ev, .-_ZNSt3mapIPKN3hsm12StateFactoryES3_St4lessIS3_ESaISt4pairIKS3_S3_EEEC2Ev
	.weak	_ZNSt3mapIPKN3hsm12StateFactoryES3_St4lessIS3_ESaISt4pairIKS3_S3_EEEC1Ev
	.set	_ZNSt3mapIPKN3hsm12StateFactoryES3_St4lessIS3_ESaISt4pairIKS3_S3_EEEC1Ev,_ZNSt3mapIPKN3hsm12StateFactoryES3_St4lessIS3_ESaISt4pairIKS3_S3_EEEC2Ev
	.section	.text._ZNSt3mapIPKN3hsm12StateFactoryES3_St4lessIS3_ESaISt4pairIKS3_S3_EEED2Ev,"axG",@progbits,_ZNSt3mapIPKN3hsm12StateFactoryES3_St4lessIS3_ESaISt4pairIKS3_S3_EEED5Ev,comdat
	.align 2
	.weak	_ZNSt3mapIPKN3hsm12StateFactoryES3_St4lessIS3_ESaISt4pairIKS3_S3_EEED2Ev
	.type	_ZNSt3mapIPKN3hsm12StateFactoryES3_St4lessIS3_ESaISt4pairIKS3_S3_EEED2Ev, @function
_ZNSt3mapIPKN3hsm12StateFactoryES3_St4lessIS3_ESaISt4pairIKS3_S3_EEED2Ev:
.LFB2823:
	.cfi_startproc
	endbr64
	pushq	%rbp
	.cfi_def_cfa_offset 16
	.cfi_offset 6, -16
	movq	%rsp, %rbp
	.cfi_def_cfa_register 6
	subq	$16, %rsp
	movq	%rdi, -8(%rbp)
	movq	-8(%rbp), %rax
	movq	%rax, %rdi
	call	_ZNSt8_Rb_treeIPKN3hsm12StateFactoryESt4pairIKS3_S3_ESt10_Select1stIS6_ESt4lessIS3_ESaIS6_EED1Ev
	nop
	leave
	.cfi_def_cfa 7, 8
	ret
	.cfi_endproc
.LFE2823:
	.size	_ZNSt3mapIPKN3hsm12StateFactoryES3_St4lessIS3_ESaISt4pairIKS3_S3_EEED2Ev, .-_ZNSt3mapIPKN3hsm12StateFactoryES3_St4lessIS3_ESaISt4pairIKS3_S3_EEED2Ev
	.weak	_ZNSt3mapIPKN3hsm12StateFactoryES3_St4lessIS3_ESaISt4pairIKS3_S3_EEED1Ev
	.set	_ZNSt3mapIPKN3hsm12StateFactoryES3_St4lessIS3_ESaISt4pairIKS3_S3_EEED1Ev,_ZNSt3mapIPKN3hsm12StateFactoryES3_St4lessIS3_ESaISt4pairIKS3_S3_EEED2Ev
	.section	.text._ZN3hsm12StateMachineC2Ev,"axG",@progbits,_ZN3hsm12StateMachineC5Ev,comdat
	.align 2
	.weak	_ZN3hsm12StateMachineC2Ev
	.type	_ZN3hsm12StateMachineC2Ev, @function
_ZN3hsm12StateMachineC2Ev:
.LFB2825:
	.cfi_startproc
	endbr64
	pushq	%rbp
	.cfi_def_cfa_offset 16
	.cfi_offset 6, -16
	movq	%rsp, %rbp
	.cfi_def_cfa_register 6
	subq	$16, %rsp
	movq	%rdi, -8(%rbp)
	movq	-8(%rbp), %rax
	movq	$0, (%rax)
	movq	-8(%rbp), %rax
	addq	$8, %rax
	movq	%rax, %rdi
	call	_ZN3hsm10TransitionC1Ev
	movq	-8(%rbp), %rax
	addq	$56, %rax
	movq	%rax, %rdi
	call	_ZNSt6vectorIPN3hsm5StateESaIS2_EEC1Ev
	movq	-8(%rbp), %rax
	addq	$80, %rax
	movq	%rax, %rdi
	call	_ZNSt3mapIPKN3hsm12StateFactoryES3_St4lessIS3_ESaISt4pairIKS3_S3_EEEC1Ev
	movq	-8(%rbp), %rax
	movl	$0, 256(%rax)
	movq	-8(%rbp), %rax
	movb	$0, 128(%rax)
	nop
	leave
	.cfi_def_cfa 7, 8
	ret
	.cfi_endproc
.LFE2825:
	.size	_ZN3hsm12StateMachineC2Ev, .-_ZN3hsm12StateMachineC2Ev
	.weak	_ZN3hsm12StateMachineC1Ev
	.set	_ZN3hsm12StateMachineC1Ev,_ZN3hsm12StateMachineC2Ev
	.section	.text._ZN3hsm12StateMachineD2Ev,"axG",@progbits,_ZN3hsm12StateMachineD5Ev,comdat
	.align 2
	.weak	_ZN3hsm12StateMachineD2Ev
	.type	_ZN3hsm12StateMachineD2Ev, @function
_ZN3hsm12StateMachineD2Ev:
.LFB2828:
	.cfi_startproc
	.cfi_personality 0x9b,DW.ref.__gxx_personality_v0
	.cfi_lsda 0x1b,.LLSDA2828
	endbr64
	pushq	%rbp
	.cfi_def_cfa_offset 16
	.cfi_offset 6, -16
	movq	%rsp, %rbp
	.cfi_def_cfa_register 6
	subq	$16, %rsp
	movq	%rdi, -8(%rbp)
	movq	-8(%rbp), %rax
	movl	$0, %esi
	movq	%rax, %rdi
	call	_ZN3hsm12StateMachine8ShutdownEb
	movq	-8(%rbp), %rax
	addq	$80, %rax
	movq	%rax, %rdi
	call	_ZNSt3mapIPKN3hsm12StateFactoryES3_St4lessIS3_ESaISt4pairIKS3_S3_EEED1Ev
	movq	-8(%rbp), %rax
	addq	$56, %rax
	movq	%rax, %rdi
	call	_ZNSt6vectorIPN3hsm5StateESaIS2_EED1Ev
	movq	-8(%rbp), %rax
	addq	$8, %rax
	movq	%rax, %rdi
	call	_ZN3hsm10TransitionD1Ev
	nop
	leave
	.cfi_def_cfa 7, 8
	ret
	.cfi_endproc
.LFE2828:
	.section	.gcc_except_table._ZN3hsm12StateMachineD2Ev,"aG",@progbits,_ZN3hsm12StateMachineD5Ev,comdat
.LLSDA2828:
	.byte	0xff
	.byte	0xff
	.byte	0x1
	.uleb128 .LLSDACSE2828-.LLSDACSB2828
.LLSDACSB2828:
.LLSDACSE2828:
	.section	.text._ZN3hsm12StateMachineD2Ev,"axG",@progbits,_ZN3hsm12StateMachineD5Ev,comdat
	.size	_ZN3hsm12StateMachineD2Ev, .-_ZN3hsm12StateMachineD2Ev
	.weak	_ZN3hsm12StateMachineD1Ev
	.set	_ZN3hsm12StateMachineD1Ev,_ZN3hsm12StateMachineD2Ev
	.section	.text._ZN3hsm10TransitionaSEOS0_,"axG",@progbits,_ZN3hsm10TransitionaSEOS0_,comdat
	.align 2
	.weak	_ZN3hsm10TransitionaSEOS0_
	.type	_ZN3hsm10TransitionaSEOS0_, @function
_ZN3hsm10TransitionaSEOS0_:
.LFB2834:
	.cfi_startproc
	endbr64
	pushq	%rbp
	.cfi_def_cfa_offset 16
	.cfi_offset 6, -16
	movq	%rsp, %rbp
	.cfi_def_cfa_register 6
	subq	$16, %rsp
	movq	%rdi, -8(%rbp)
	movq	%rsi, -16(%rbp)
	movq	-16(%rbp), %rax
	movl	(%rax), %edx
	movq	-8(%rbp), %rax
	movl	%edx, (%rax)
	movq	-16(%rbp), %rax
	movq	8(%rax), %rdx
	movq	-8(%rbp), %rax
	movq	%rdx, 8(%rax)
	movq	-16(%rbp), %rax
	leaq	16(%rax), %rdx
	movq	-8(%rbp), %rax
	addq	$16, %rax
	movq	%rdx, %rsi
	movq	%rax, %rdi
	call	_ZNSt7__cxx1112basic_stringIcSt11char_traitsIcESaIcEEaSEOS4_@PLT
	movq	-8(%rbp), %rax
	leave
	.cfi_def_cfa 7, 8
	ret
	.cfi_endproc
.LFE2834:
	.size	_ZN3hsm10TransitionaSEOS0_, .-_ZN3hsm10TransitionaSEOS0_
	.section	.text._ZN3hsm12StateMachine8ShutdownEb,"axG",@progbits,_ZN3hsm12StateMachine8ShutdownEb,comdat
	.align 2
	.weak	_ZN3hsm12StateMachine8ShutdownEb
	.type	_ZN3hsm12StateMachine8ShutdownEb, @function
_ZN3hsm12StateMachine8ShutdownEb:
.LFB2830:
	.cfi_startproc
	endbr64
	pushq	%rbp
	.cfi_def_cfa_offset 16
	.cfi_offset 6, -16
	movq	%rsp, %rbp
	.cfi_def_cfa_register 6
	subq	$80, %rsp
	movq	%rdi, -72(%rbp)
	movl	%esi, %eax
	movb	%al, -76(%rbp)
	movq	%fs:40, %rax
	movq	%rax, -8(%rbp)
	xorl	%eax, %eax
	cmpb	$0, -76(%rbp)
	je	.L96
	movq	-72(%rbp), %rax
	movq	%rax, %rdi
	call	_ZN3hsm12StateMachine4StopEv
.L96:
	movq	-72(%rbp), %rax
	movl	$0, %edx
	movl	$0, %esi
	movq	%rax, %rdi
	call	_ZN3hsm12StateMachine16PopStatesToDepthEmb
	movq	-72(%rbp), %rax
	movq	$0, (%rax)
	leaq	-64(%rbp), %rax
	movq	%rax, %rdi
	call	_ZN3hsm12NoTransitionEv
	movq	-72(%rbp), %rax
	leaq	8(%rax), %rdx
	leaq	-64(%rbp), %rax
	movq	%rax, %rsi
	movq	%rdx, %rdi
	call	_ZN3hsm10TransitionaSEOS0_
	leaq	-64(%rbp), %rax
	movq	%rax, %rdi
	call	_ZN3hsm10TransitionD1Ev
	nop
	movq	-8(%rbp), %rax
	subq	%fs:40, %rax
	je	.L97
	call	__stack_chk_fail@PLT
.L97:
	leave
	.cfi_def_cfa 7, 8
	ret
	.cfi_endproc
.LFE2830:
	.size	_ZN3hsm12StateMachine8ShutdownEb, .-_ZN3hsm12StateMachine8ShutdownEb
	.section	.rodata
	.align 8
.LC9:
	.string	"void hsm::StateMachine::Stop()"
.LC10:
	.string	"mStateStack.empty()"
	.section	.text._ZN3hsm12StateMachine4StopEv,"axG",@progbits,_ZN3hsm12StateMachine4StopEv,comdat
	.align 2
	.weak	_ZN3hsm12StateMachine4StopEv
	.type	_ZN3hsm12StateMachine4StopEv, @function
_ZN3hsm12StateMachine4StopEv:
.LFB2835:
	.cfi_startproc
	endbr64
	pushq	%rbp
	.cfi_def_cfa_offset 16
	.cfi_offset 6, -16
	movq	%rsp, %rbp
	.cfi_def_cfa_register 6
	subq	$16, %rsp
	movq	%rdi, -8(%rbp)
	movq	-8(%rbp), %rax
	movl	$1, %edx
	movl	$0, %esi
	movq	%rax, %rdi
	call	_ZN3hsm12StateMachine16PopStatesToDepthEmb
	movq	-8(%rbp), %rax
	addq	$56, %rax
	movq	%rax, %rdi
	call	_ZNKSt6vectorIPN3hsm5StateESaIS2_EE5emptyEv
	testb	%al, %al
	jne	.L100
	leaq	.LC9(%rip), %rax
	movq	%rax, %rcx
	movl	$1035, %edx
	leaq	.LC1(%rip), %rax
	movq	%rax, %rsi
	leaq	.LC10(%rip), %rax
	movq	%rax, %rdi
	call	__assert_fail@PLT
.L100:
	nop
	leave
	.cfi_def_cfa 7, 8
	ret
	.cfi_endproc
.LFE2835:
	.size	_ZN3hsm12StateMachine4StopEv, .-_ZN3hsm12StateMachine4StopEv
	.section	.text._ZN3hsm12StateMachine12SetDebugInfoEPKcNS_10TraceLevel4TypeE,"axG",@progbits,_ZN3hsm12StateMachine12SetDebugInfoEPKcNS_10TraceLevel4TypeE,comdat
	.align 2
	.weak	_ZN3hsm12StateMachine12SetDebugInfoEPKcNS_10TraceLevel4TypeE
	.type	_ZN3hsm12StateMachine12SetDebugInfoEPKcNS_10TraceLevel4TypeE, @function
_ZN3hsm12StateMachine12SetDebugInfoEPKcNS_10TraceLevel4TypeE:
.LFB2836:
	.cfi_startproc
	endbr64
	pushq	%rbp
	.cfi_def_cfa_offset 16
	.cfi_offset 6, -16
	movq	%rsp, %rbp
	.cfi_def_cfa_register 6
	subq	$32, %rsp
	movq	%rdi, -8(%rbp)
	movq	%rsi, -16(%rbp)
	movl	%edx, -20(%rbp)
	movq	-16(%rbp), %rdx
	movq	-8(%rbp), %rax
	movq	%rdx, %rsi
	movq	%rax, %rdi
	call	_ZN3hsm12StateMachine12SetDebugNameEPKc
	movl	-20(%rbp), %edx
	movq	-8(%rbp), %rax
	movl	%edx, %esi
	movq	%rax, %rdi
	call	_ZN3hsm12StateMachine18SetDebugTraceLevelENS_10TraceLevel4TypeE
	nop
	leave
	.cfi_def_cfa 7, 8
	ret
	.cfi_endproc
.LFE2836:
	.size	_ZN3hsm12StateMachine12SetDebugInfoEPKcNS_10TraceLevel4TypeE, .-_ZN3hsm12StateMachine12SetDebugInfoEPKcNS_10TraceLevel4TypeE
	.section	.text._ZN3hsm12StateMachine12SetDebugNameEPKc,"axG",@progbits,_ZN3hsm12StateMachine12SetDebugNameEPKc,comdat
	.align 2
	.weak	_ZN3hsm12StateMachine12SetDebugNameEPKc
	.type	_ZN3hsm12StateMachine12SetDebugNameEPKc, @function
_ZN3hsm12StateMachine12SetDebugNameEPKc:
.LFB2837:
	.cfi_startproc
	endbr64
	pushq	%rbp
	.cfi_def_cfa_offset 16
	.cfi_offset 6, -16
	movq	%rsp, %rbp
	.cfi_def_cfa_register 6
	subq	$16, %rsp
	movq	%rdi, -8(%rbp)
	movq	%rsi, -16(%rbp)
	movq	-8(%rbp), %rax
	leaq	128(%rax), %rcx
	movq	-16(%rbp), %rax
	movl	$128, %edx
	movq	%rax, %rsi
	movq	%rcx, %rdi
	call	strncpy@PLT
	movq	-8(%rbp), %rax
	movb	$0, 255(%rax)
	nop
	leave
	.cfi_def_cfa 7, 8
	ret
	.cfi_endproc
.LFE2837:
	.size	_ZN3hsm12StateMachine12SetDebugNameEPKc, .-_ZN3hsm12StateMachine12SetDebugNameEPKc
	.section	.rodata
	.align 8
.LC11:
	.string	"void hsm::StateMachine::ProcessStateTransitions()"
	.align 8
.LC12:
	.string	"(!mInitialTransition.IsNo()) && \"Must call Initialize()\""
	.align 8
.LC13:
	.string	"(false) && \"ProcessStateTransitions: detected infinite transition loop\""
	.section	.text._ZN3hsm12StateMachine23ProcessStateTransitionsEv,"axG",@progbits,_ZN3hsm12StateMachine23ProcessStateTransitionsEv,comdat
	.align 2
	.weak	_ZN3hsm12StateMachine23ProcessStateTransitionsEv
	.type	_ZN3hsm12StateMachine23ProcessStateTransitionsEv, @function
_ZN3hsm12StateMachine23ProcessStateTransitionsEv:
.LFB2838:
	.cfi_startproc
	endbr64
	pushq	%rbp
	.cfi_def_cfa_offset 16
	.cfi_offset 6, -16
	movq	%rsp, %rbp
	.cfi_def_cfa_register 6
	subq	$32, %rsp
	movq	%rdi, -24(%rbp)
	movq	-24(%rbp), %rax
	addq	$56, %rax
	movq	%rax, %rdi
	call	_ZNKSt6vectorIPN3hsm5StateESaIS2_EE5emptyEv
	testb	%al, %al
	je	.L104
	movq	-24(%rbp), %rax
	addq	$8, %rax
	movq	%rax, %rdi
	call	_ZNK3hsm10Transition4IsNoEv
	xorl	$1, %eax
	testb	%al, %al
	jne	.L109
	leaq	.LC11(%rip), %rax
	movq	%rax, %rcx
	movl	$1052, %edx
	leaq	.LC1(%rip), %rax
	movq	%rax, %rsi
	leaq	.LC12(%rip), %rax
	movq	%rax, %rdi
	call	__assert_fail@PLT
.L109:
	movq	-24(%rbp), %rax
	leaq	8(%rax), %rdx
	movq	-24(%rbp), %rax
	movq	%rdx, %rsi
	movq	%rax, %rdi
	call	_ZN3hsm12StateMachine25CreateAndPushInitialStateERKNS_10TransitionE
.L104:
	movb	$1, -5(%rbp)
	movl	$0, -4(%rbp)
	jmp	.L107
.L108:
	movq	-24(%rbp), %rax
	movq	%rax, %rdi
	call	_ZN3hsm12StateMachine27ProcessStateTransitionsOnceEv
	movb	%al, -5(%rbp)
	addl	$1, -4(%rbp)
	cmpl	$999, -4(%rbp)
	setg	%al
	testb	%al, %al
	je	.L107
	leaq	.LC11(%rip), %rax
	movq	%rax, %rcx
	movl	$1064, %edx
	leaq	.LC1(%rip), %rax
	movq	%rax, %rsi
	leaq	.LC13(%rip), %rax
	movq	%rax, %rdi
	call	__assert_fail@PLT
.L107:
	cmpb	$0, -5(%rbp)
	jne	.L108
	nop
	nop
	leave
	.cfi_def_cfa 7, 8
	ret
	.cfi_endproc
.LFE2838:
	.size	_ZN3hsm12StateMachine23ProcessStateTransitionsEv, .-_ZN3hsm12StateMachine23ProcessStateTransitionsEv
	.section	.text._ZN3hsm12StateMachine12UpdateStatesEv,"axG",@progbits,_ZN3hsm12StateMachine12UpdateStatesEv,comdat
	.align 2
	.weak	_ZN3hsm12StateMachine12UpdateStatesEv
	.type	_ZN3hsm12StateMachine12UpdateStatesEv, @function
_ZN3hsm12StateMachine12UpdateStatesEv:
.LFB2839:
	.cfi_startproc
	endbr64
	pushq	%rbp
	.cfi_def_cfa_offset 16
	.cfi_offset 6, -16
	movq	%rsp, %rbp
	.cfi_def_cfa_register 6
	subq	$48, %rsp
	movq	%rdi, -40(%rbp)
	movq	%fs:40, %rax
	movq	%rax, -8(%rbp)
	xorl	%eax, %eax
	movq	-40(%rbp), %rax
	movq	%rax, %rdi
	call	_ZN3hsm12StateMachine17BeginOuterToInnerEv
	movq	%rax, -24(%rbp)
	movq	-40(%rbp), %rax
	movq	%rax, %rdi
	call	_ZN3hsm12StateMachine15EndOuterToInnerEv
	movq	%rax, -16(%rbp)
	jmp	.L111
.L112:
	leaq	-24(%rbp), %rax
	movq	%rax, %rdi
	call	_ZNK9__gnu_cxx17__normal_iteratorIPPN3hsm5StateESt6vectorIS3_SaIS3_EEEdeEv
	movq	(%rax), %rax
	movq	(%rax), %rdx
	addq	$40, %rdx
	movq	(%rdx), %rdx
	movq	%rax, %rdi
	call	*%rdx
	leaq	-24(%rbp), %rax
	movq	%rax, %rdi
	call	_ZN9__gnu_cxx17__normal_iteratorIPPN3hsm5StateESt6vectorIS3_SaIS3_EEEppEv
.L111:
	leaq	-16(%rbp), %rdx
	leaq	-24(%rbp), %rax
	movq	%rdx, %rsi
	movq	%rax, %rdi
	call	_ZN9__gnu_cxxneIPPN3hsm5StateESt6vectorIS3_SaIS3_EEEEbRKNS_17__normal_iteratorIT_T0_EESD_
	testb	%al, %al
	jne	.L112
	nop
	movq	-8(%rbp), %rax
	subq	%fs:40, %rax
	je	.L113
	call	__stack_chk_fail@PLT
.L113:
	leave
	.cfi_def_cfa 7, 8
	ret
	.cfi_endproc
.LFE2839:
	.size	_ZN3hsm12StateMachine12UpdateStatesEv, .-_ZN3hsm12StateMachine12UpdateStatesEv
	.section	.text._ZN3hsm12StateMachine15GetStateAtDepthEm,"axG",@progbits,_ZN3hsm12StateMachine15GetStateAtDepthEm,comdat
	.align 2
	.weak	_ZN3hsm12StateMachine15GetStateAtDepthEm
	.type	_ZN3hsm12StateMachine15GetStateAtDepthEm, @function
_ZN3hsm12StateMachine15GetStateAtDepthEm:
.LFB2841:
	.cfi_startproc
	endbr64
	pushq	%rbp
	.cfi_def_cfa_offset 16
	.cfi_offset 6, -16
	movq	%rsp, %rbp
	.cfi_def_cfa_register 6
	subq	$16, %rsp
	movq	%rdi, -8(%rbp)
	movq	%rsi, -16(%rbp)
	movq	-8(%rbp), %rax
	addq	$56, %rax
	movq	%rax, %rdi
	call	_ZNKSt6vectorIPN3hsm5StateESaIS2_EE4sizeEv
	cmpq	%rax, -16(%rbp)
	setnb	%al
	testb	%al, %al
	je	.L115
	movl	$0, %eax
	jmp	.L116
.L115:
	movq	-8(%rbp), %rax
	leaq	56(%rax), %rdx
	movq	-16(%rbp), %rax
	movq	%rax, %rsi
	movq	%rdx, %rdi
	call	_ZNSt6vectorIPN3hsm5StateESaIS2_EEixEm
	movq	(%rax), %rax
.L116:
	leave
	.cfi_def_cfa 7, 8
	ret
	.cfi_endproc
.LFE2841:
	.size	_ZN3hsm12StateMachine15GetStateAtDepthEm, .-_ZN3hsm12StateMachine15GetStateAtDepthEm
	.section	.rodata
	.align 8
.LC14:
	.string	"void hsm::StateMachine::CreateAndPushInitialState(const hsm::Transition&)"
.LC15:
	.string	"Init"
	.section	.text._ZN3hsm12StateMachine25CreateAndPushInitialStateERKNS_10TransitionE,"axG",@progbits,_ZN3hsm12StateMachine25CreateAndPushInitialStateERKNS_10TransitionE,comdat
	.align 2
	.weak	_ZN3hsm12StateMachine25CreateAndPushInitialStateERKNS_10TransitionE
	.type	_ZN3hsm12StateMachine25CreateAndPushInitialStateERKNS_10TransitionE, @function
_ZN3hsm12StateMachine25CreateAndPushInitialStateERKNS_10TransitionE:
.LFB2847:
	.cfi_startproc
	endbr64
	pushq	%rbp
	.cfi_def_cfa_offset 16
	.cfi_offset 6, -16
	movq	%rsp, %rbp
	.cfi_def_cfa_register 6
	subq	$32, %rsp
	movq	%rdi, -24(%rbp)
	movq	%rsi, -32(%rbp)
	movq	-24(%rbp), %rax
	addq	$56, %rax
	movq	%rax, %rdi
	call	_ZNKSt6vectorIPN3hsm5StateESaIS2_EE5emptyEv
	testb	%al, %al
	jne	.L118
	leaq	.LC14(%rip), %rax
	movq	%rax, %rcx
	movl	$1137, %edx
	leaq	.LC1(%rip), %rax
	movq	%rax, %rsi
	leaq	.LC10(%rip), %rax
	movq	%rax, %rdi
	call	__assert_fail@PLT
.L118:
	movq	-24(%rbp), %rcx
	movq	-32(%rbp), %rax
	movl	$0, %edx
	movq	%rcx, %rsi
	movq	%rax, %rdi
	call	_ZN3hsm6detail11CreateStateERKNS_10TransitionEPNS_12StateMachineEm
	movq	%rax, -8(%rbp)
	movq	-8(%rbp), %rdx
	movq	-24(%rbp), %rax
	movq	%rdx, %r8
	leaq	.LC15(%rip), %rdx
	movq	%rdx, %rcx
	movl	$0, %edx
	movl	$1, %esi
	movq	%rax, %rdi
	call	_ZN3hsm12StateMachine13LogTransitionEmmPKcPNS_5StateE
	movq	-8(%rbp), %rdx
	movq	-24(%rbp), %rax
	movq	%rdx, %rsi
	movq	%rax, %rdi
	call	_ZN3hsm12StateMachine9PushStateEPNS_5StateE
	movq	-8(%rbp), %rdx
	movq	-32(%rbp), %rax
	movq	%rdx, %rsi
	movq	%rax, %rdi
	call	_ZN3hsm6detail18InvokeStateOnEnterERKNS_10TransitionEPNS_5StateE
	nop
	leave
	.cfi_def_cfa 7, 8
	ret
	.cfi_endproc
.LFE2847:
	.size	_ZN3hsm12StateMachine25CreateAndPushInitialStateERKNS_10TransitionE, .-_ZN3hsm12StateMachine25CreateAndPushInitialStateERKNS_10TransitionE
	.section	.rodata
	.align 8
.LC16:
	.string	"void hsm::StateMachine::PopStatesToDepth(size_t, hsm_bool)"
	.align 8
.LC17:
	.string	"state == mStateStack.at(currDepth)"
.LC18:
	.string	"Pop"
	.section	.text._ZN3hsm12StateMachine16PopStatesToDepthEmb,"axG",@progbits,_ZN3hsm12StateMachine16PopStatesToDepthEmb,comdat
	.align 2
	.weak	_ZN3hsm12StateMachine16PopStatesToDepthEmb
	.type	_ZN3hsm12StateMachine16PopStatesToDepthEmb, @function
_ZN3hsm12StateMachine16PopStatesToDepthEmb:
.LFB2848:
	.cfi_startproc
	endbr64
	pushq	%rbp
	.cfi_def_cfa_offset 16
	.cfi_offset 6, -16
	movq	%rsp, %rbp
	.cfi_def_cfa_register 6
	subq	$64, %rsp
	movq	%rdi, -40(%rbp)
	movq	%rsi, -48(%rbp)
	movl	%edx, %eax
	movb	%al, -52(%rbp)
	movq	-40(%rbp), %rax
	addq	$56, %rax
	movq	%rax, %rdi
	call	_ZNKSt6vectorIPN3hsm5StateESaIS2_EE4sizeEv
	subq	-48(%rbp), %rax
	movq	%rax, -16(%rbp)
	movq	-40(%rbp), %rax
	addq	$56, %rax
	movq	%rax, %rdi
	call	_ZNKSt6vectorIPN3hsm5StateESaIS2_EE4sizeEv
	subq	$1, %rax
	movq	%rax, -32(%rbp)
	movq	$0, -24(%rbp)
	jmp	.L120
.L123:
	movq	-40(%rbp), %rax
	addq	$56, %rax
	movq	%rax, %rdi
	call	_ZNSt6vectorIPN3hsm5StateESaIS2_EE4backEv
	movq	(%rax), %rax
	movq	%rax, -8(%rbp)
	movq	-40(%rbp), %rax
	leaq	56(%rax), %rdx
	movq	-32(%rbp), %rax
	movq	%rax, %rsi
	movq	%rdx, %rdi
	call	_ZNSt6vectorIPN3hsm5StateESaIS2_EE2atEm
	movq	(%rax), %rax
	cmpq	%rax, -8(%rbp)
	je	.L121
	leaq	.LC16(%rip), %rax
	movq	%rax, %rcx
	movl	$1151, %edx
	leaq	.LC1(%rip), %rax
	movq	%rax, %rsi
	leaq	.LC17(%rip), %rax
	movq	%rax, %rdi
	call	__assert_fail@PLT
.L121:
	cmpb	$0, -52(%rbp)
	je	.L122
	movq	-8(%rbp), %rcx
	movq	-32(%rbp), %rdx
	movq	-40(%rbp), %rax
	movq	%rcx, %r8
	leaq	.LC18(%rip), %rcx
	movl	$2, %esi
	movq	%rax, %rdi
	call	_ZN3hsm12StateMachine13LogTransitionEmmPKcPNS_5StateE
	movq	-8(%rbp), %rax
	movq	%rax, %rdi
	call	_ZN3hsm6detail17InvokeStateOnExitEPNS_5StateE
.L122:
	movq	-40(%rbp), %rax
	movq	%rax, %rdi
	call	_ZN3hsm12StateMachine8PopStateEv
	movq	-8(%rbp), %rax
	movq	%rax, %rdi
	call	_ZN3hsm6detail12DestroyStateEPNS_5StateE
	addq	$1, -24(%rbp)
	subq	$1, -32(%rbp)
.L120:
	movq	-24(%rbp), %rax
	cmpq	-16(%rbp), %rax
	jb	.L123
	nop
	nop
	leave
	.cfi_def_cfa 7, 8
	ret
	.cfi_endproc
.LFE2848:
	.size	_ZN3hsm12StateMachine16PopStatesToDepthEmb, .-_ZN3hsm12StateMachine16PopStatesToDepthEmb
	.section	.rodata
.LC19:
	.string	"Inner"
.LC20:
	.string	"Entry"
.LC21:
	.string	"Sibling"
	.section	.text._ZN3hsm12StateMachine27ProcessStateTransitionsOnceEv,"axG",@progbits,_ZN3hsm12StateMachine27ProcessStateTransitionsOnceEv,comdat
	.align 2
	.weak	_ZN3hsm12StateMachine27ProcessStateTransitionsOnceEv
	.type	_ZN3hsm12StateMachine27ProcessStateTransitionsOnceEv, @function
_ZN3hsm12StateMachine27ProcessStateTransitionsOnceEv:
.LFB2849:
	.cfi_startproc
	.cfi_personality 0x9b,DW.ref.__gxx_personality_v0
	.cfi_lsda 0x1b,.LLSDA2849
	endbr64
	pushq	%rbp
	.cfi_def_cfa_offset 16
	.cfi_offset 6, -16
	movq	%rsp, %rbp
	.cfi_def_cfa_register 6
	pushq	%r12
	pushq	%rbx
	subq	$160, %rsp
	.cfi_offset 12, -24
	.cfi_offset 3, -32
	movq	%rdi, -168(%rbp)
	movq	%fs:40, %rax
	movq	%rax, -24(%rbp)
	xorl	%eax, %eax
	movq	$0, -144(%rbp)
	jmp	.L125
.L139:
	movq	-144(%rbp), %rdx
	movq	-168(%rbp), %rax
	movq	%rdx, %rsi
	movq	%rax, %rdi
	call	_ZN3hsm12StateMachine15GetStateAtDepthEm
	movq	%rax, -136(%rbp)
	movq	-136(%rbp), %rax
	movq	(%rax), %rax
	addq	$32, %rax
	movq	(%rax), %rcx
	leaq	-80(%rbp), %rax
	movq	-136(%rbp), %rdx
	movq	%rdx, %rsi
	movq	%rax, %rdi
.LEHB7:
	call	*%rcx
.LEHE7:
	leaq	-80(%rbp), %rax
	movq	%rax, -128(%rbp)
	movq	-128(%rbp), %rax
	movq	%rax, %rdi
	call	_ZNK3hsm10Transition17GetTransitionTypeEv
	cmpl	$3, %eax
	je	.L126
	cmpl	$3, %eax
	jg	.L127
	cmpl	$2, %eax
	je	.L128
	cmpl	$2, %eax
	jg	.L127
	testl	%eax, %eax
	je	.L129
	cmpl	$1, %eax
	je	.L130
	jmp	.L127
.L126:
	movl	$0, %ebx
	jmp	.L131
.L130:
	movq	-144(%rbp), %rax
	leaq	1(%rax), %rdx
	movq	-168(%rbp), %rax
	movq	%rdx, %rsi
	movq	%rax, %rdi
	call	_ZN3hsm12StateMachine15GetStateAtDepthEm
	movq	%rax, -112(%rbp)
	cmpq	$0, -112(%rbp)
	je	.L132
	movq	-112(%rbp), %rax
	movq	%rax, %rdi
	call	_ZNK3hsm5State12GetStateTypeEv
	movq	%rax, -152(%rbp)
	movq	-128(%rbp), %rax
	movq	%rax, %rdi
.LEHB8:
	call	_ZNK3hsm10Transition18GetTargetStateTypeEv
	movq	%rax, -160(%rbp)
	leaq	-152(%rbp), %rdx
	leaq	-160(%rbp), %rax
	movq	%rdx, %rsi
	movq	%rax, %rdi
	call	_ZNK3hsm11StateTypeIdeqERKS0_
	testb	%al, %al
	je	.L133
	movl	$0, %ebx
	jmp	.L131
.L133:
	movq	-144(%rbp), %rax
	leaq	1(%rax), %rcx
	movq	-168(%rbp), %rax
	movl	$1, %edx
	movq	%rcx, %rsi
	movq	%rax, %rdi
	call	_ZN3hsm12StateMachine16PopStatesToDepthEmb
	movq	-144(%rbp), %rax
	leaq	1(%rax), %rdx
	movq	-168(%rbp), %rcx
	movq	-128(%rbp), %rax
	movq	%rcx, %rsi
	movq	%rax, %rdi
	call	_ZN3hsm6detail11CreateStateERKNS_10TransitionEPNS_12StateMachineEm
	movq	%rax, -96(%rbp)
	movq	-144(%rbp), %rax
	leaq	1(%rax), %rdx
	movq	-96(%rbp), %rcx
	movq	-168(%rbp), %rax
	movq	%rcx, %r8
	leaq	.LC19(%rip), %rcx
	movl	$1, %esi
	movq	%rax, %rdi
	call	_ZN3hsm12StateMachine13LogTransitionEmmPKcPNS_5StateE
	movq	-96(%rbp), %rdx
	movq	-168(%rbp), %rax
	movq	%rdx, %rsi
	movq	%rax, %rdi
	call	_ZN3hsm12StateMachine9PushStateEPNS_5StateE
	movq	-96(%rbp), %rdx
	movq	-128(%rbp), %rax
	movq	%rdx, %rsi
	movq	%rax, %rdi
	call	_ZN3hsm6detail18InvokeStateOnEnterERKNS_10TransitionEPNS_5StateE
	movl	$1, %r12d
	movl	$1, %ebx
	jmp	.L131
.L132:
	movq	-144(%rbp), %rax
	leaq	1(%rax), %rdx
	movq	-168(%rbp), %rcx
	movq	-128(%rbp), %rax
	movq	%rcx, %rsi
	movq	%rax, %rdi
	call	_ZN3hsm6detail11CreateStateERKNS_10TransitionEPNS_12StateMachineEm
	movq	%rax, -104(%rbp)
	movq	-144(%rbp), %rax
	leaq	1(%rax), %rdx
	movq	-104(%rbp), %rcx
	movq	-168(%rbp), %rax
	movq	%rcx, %r8
	leaq	.LC19(%rip), %rcx
	movl	$1, %esi
	movq	%rax, %rdi
	call	_ZN3hsm12StateMachine13LogTransitionEmmPKcPNS_5StateE
	movq	-104(%rbp), %rdx
	movq	-168(%rbp), %rax
	movq	%rdx, %rsi
	movq	%rax, %rdi
	call	_ZN3hsm12StateMachine9PushStateEPNS_5StateE
	movq	-104(%rbp), %rdx
	movq	-128(%rbp), %rax
	movq	%rdx, %rsi
	movq	%rax, %rdi
	call	_ZN3hsm6detail18InvokeStateOnEnterERKNS_10TransitionEPNS_5StateE
	movl	$1, %r12d
	movl	$1, %ebx
	jmp	.L131
.L128:
	movq	-144(%rbp), %rax
	leaq	1(%rax), %rdx
	movq	-168(%rbp), %rax
	movq	%rdx, %rsi
	movq	%rax, %rdi
	call	_ZN3hsm12StateMachine15GetStateAtDepthEm
	testq	%rax, %rax
	sete	%al
	testb	%al, %al
	je	.L144
	movq	-144(%rbp), %rax
	leaq	1(%rax), %rdx
	movq	-168(%rbp), %rcx
	movq	-128(%rbp), %rax
	movq	%rcx, %rsi
	movq	%rax, %rdi
	call	_ZN3hsm6detail11CreateStateERKNS_10TransitionEPNS_12StateMachineEm
	movq	%rax, -120(%rbp)
	movq	-144(%rbp), %rax
	leaq	1(%rax), %rdx
	movq	-120(%rbp), %rcx
	movq	-168(%rbp), %rax
	movq	%rcx, %r8
	leaq	.LC20(%rip), %rcx
	movl	$1, %esi
	movq	%rax, %rdi
	call	_ZN3hsm12StateMachine13LogTransitionEmmPKcPNS_5StateE
	movq	-120(%rbp), %rdx
	movq	-168(%rbp), %rax
	movq	%rdx, %rsi
	movq	%rax, %rdi
	call	_ZN3hsm12StateMachine9PushStateEPNS_5StateE
	movq	-120(%rbp), %rdx
	movq	-128(%rbp), %rax
	movq	%rdx, %rsi
	movq	%rax, %rdi
	call	_ZN3hsm6detail18InvokeStateOnEnterERKNS_10TransitionEPNS_5StateE
	movl	$1, %r12d
	movl	$1, %ebx
	jmp	.L131
.L129:
	movq	-144(%rbp), %rcx
	movq	-168(%rbp), %rax
	movl	$1, %edx
	movq	%rcx, %rsi
	movq	%rax, %rdi
	call	_ZN3hsm12StateMachine16PopStatesToDepthEmb
	movq	-144(%rbp), %rdx
	movq	-168(%rbp), %rcx
	movq	-128(%rbp), %rax
	movq	%rcx, %rsi
	movq	%rax, %rdi
	call	_ZN3hsm6detail11CreateStateERKNS_10TransitionEPNS_12StateMachineEm
	movq	%rax, -88(%rbp)
	movq	-88(%rbp), %rcx
	movq	-144(%rbp), %rdx
	movq	-168(%rbp), %rax
	movq	%rcx, %r8
	leaq	.LC21(%rip), %rcx
	movl	$1, %esi
	movq	%rax, %rdi
	call	_ZN3hsm12StateMachine13LogTransitionEmmPKcPNS_5StateE
	movq	-88(%rbp), %rdx
	movq	-168(%rbp), %rax
	movq	%rdx, %rsi
	movq	%rax, %rdi
	call	_ZN3hsm12StateMachine9PushStateEPNS_5StateE
	movq	-88(%rbp), %rdx
	movq	-128(%rbp), %rax
	movq	%rdx, %rsi
	movq	%rax, %rdi
	call	_ZN3hsm6detail18InvokeStateOnEnterERKNS_10TransitionEPNS_5StateE
.LEHE8:
	movl	$1, %r12d
	movl	$1, %ebx
	jmp	.L131
.L144:
	nop
.L127:
	movl	$2, %ebx
.L131:
	leaq	-80(%rbp), %rax
	movq	%rax, %rdi
	call	_ZN3hsm10TransitionD1Ev
	testl	%ebx, %ebx
	je	.L137
	cmpl	$2, %ebx
	jne	.L138
.L137:
	addq	$1, -144(%rbp)
.L125:
	movq	-168(%rbp), %rax
	addq	$56, %rax
	movq	%rax, %rdi
	call	_ZNKSt6vectorIPN3hsm5StateESaIS2_EE4sizeEv
	cmpq	%rax, -144(%rbp)
	setb	%al
	testb	%al, %al
	jne	.L139
	movl	$0, %r12d
.L138:
	movl	%r12d, %eax
	movq	-24(%rbp), %rdx
	subq	%fs:40, %rdx
	je	.L141
	jmp	.L143
.L142:
	endbr64
	movq	%rax, %rbx
	leaq	-80(%rbp), %rax
	movq	%rax, %rdi
	call	_ZN3hsm10TransitionD1Ev
	movq	%rbx, %rax
	movq	%rax, %rdi
.LEHB9:
	call	_Unwind_Resume@PLT
.LEHE9:
.L143:
	call	__stack_chk_fail@PLT
.L141:
	addq	$160, %rsp
	popq	%rbx
	popq	%r12
	popq	%rbp
	.cfi_def_cfa 7, 8
	ret
	.cfi_endproc
.LFE2849:
	.section	.gcc_except_table._ZN3hsm12StateMachine27ProcessStateTransitionsOnceEv,"aG",@progbits,_ZN3hsm12StateMachine27ProcessStateTransitionsOnceEv,comdat
.LLSDA2849:
	.byte	0xff
	.byte	0xff
	.byte	0x1
	.uleb128 .LLSDACSE2849-.LLSDACSB2849
.LLSDACSB2849:
	.uleb128 .LEHB7-.LFB2849
	.uleb128 .LEHE7-.LEHB7
	.uleb128 0
	.uleb128 0
	.uleb128 .LEHB8-.LFB2849
	.uleb128 .LEHE8-.LEHB8
	.uleb128 .L142-.LFB2849
	.uleb128 0
	.uleb128 .LEHB9-.LFB2849
	.uleb128 .LEHE9-.LEHB9
	.uleb128 0
	.uleb128 0
.LLSDACSE2849:
	.section	.text._ZN3hsm12StateMachine27ProcessStateTransitionsOnceEv,"axG",@progbits,_ZN3hsm12StateMachine27ProcessStateTransitionsOnceEv,comdat
	.size	_ZN3hsm12StateMachine27ProcessStateTransitionsOnceEv, .-_ZN3hsm12StateMachine27ProcessStateTransitionsOnceEv
	.section	.text._ZN3hsm12StateMachine9PushStateEPNS_5StateE,"axG",@progbits,_ZN3hsm12StateMachine9PushStateEPNS_5StateE,comdat
	.align 2
	.weak	_ZN3hsm12StateMachine9PushStateEPNS_5StateE
	.type	_ZN3hsm12StateMachine9PushStateEPNS_5StateE, @function
_ZN3hsm12StateMachine9PushStateEPNS_5StateE:
.LFB2850:
	.cfi_startproc
	endbr64
	pushq	%rbp
	.cfi_def_cfa_offset 16
	.cfi_offset 6, -16
	movq	%rsp, %rbp
	.cfi_def_cfa_register 6
	subq	$16, %rsp
	movq	%rdi, -8(%rbp)
	movq	%rsi, -16(%rbp)
	movq	-8(%rbp), %rax
	leaq	56(%rax), %rdx
	leaq	-16(%rbp), %rax
	movq	%rax, %rsi
	movq	%rdx, %rdi
	call	_ZNSt6vectorIPN3hsm5StateESaIS2_EE9push_backERKS2_
	nop
	leave
	.cfi_def_cfa 7, 8
	ret
	.cfi_endproc
.LFE2850:
	.size	_ZN3hsm12StateMachine9PushStateEPNS_5StateE, .-_ZN3hsm12StateMachine9PushStateEPNS_5StateE
	.section	.text._ZN3hsm12StateMachine8PopStateEv,"axG",@progbits,_ZN3hsm12StateMachine8PopStateEv,comdat
	.align 2
	.weak	_ZN3hsm12StateMachine8PopStateEv
	.type	_ZN3hsm12StateMachine8PopStateEv, @function
_ZN3hsm12StateMachine8PopStateEv:
.LFB2851:
	.cfi_startproc
	endbr64
	pushq	%rbp
	.cfi_def_cfa_offset 16
	.cfi_offset 6, -16
	movq	%rsp, %rbp
	.cfi_def_cfa_register 6
	subq	$16, %rsp
	movq	%rdi, -8(%rbp)
	movq	-8(%rbp), %rax
	addq	$56, %rax
	movq	%rax, %rdi
	call	_ZNSt6vectorIPN3hsm5StateESaIS2_EE8pop_backEv
	nop
	leave
	.cfi_def_cfa 7, 8
	ret
	.cfi_endproc
.LFE2851:
	.size	_ZN3hsm12StateMachine8PopStateEv, .-_ZN3hsm12StateMachine8PopStateEv
	.weak	_ZZN3hsm12StateMachine3LogEmmPKczE6buffer
	.section	.bss._ZZN3hsm12StateMachine3LogEmmPKczE6buffer,"awG",@nobits,_ZZN3hsm12StateMachine3LogEmmPKczE6buffer,comdat
	.align 32
	.type	_ZZN3hsm12StateMachine3LogEmmPKczE6buffer, @gnu_unique_object
	.size	_ZZN3hsm12StateMachine3LogEmmPKczE6buffer, 4096
_ZZN3hsm12StateMachine3LogEmmPKczE6buffer:
	.zero	4096
	.section	.rodata
.LC22:
	.string	"HSM_%lu_%s:%*s "
.LC23:
	.string	"%s"
	.section	.text._ZN3hsm12StateMachine3LogEmmPKcz,"axG",@progbits,_ZN3hsm12StateMachine3LogEmmPKcz,comdat
	.align 2
	.weak	_ZN3hsm12StateMachine3LogEmmPKcz
	.type	_ZN3hsm12StateMachine3LogEmmPKcz, @function
_ZN3hsm12StateMachine3LogEmmPKcz:
.LFB2852:
	.cfi_startproc
	endbr64
	pushq	%rbp
	.cfi_def_cfa_offset 16
	.cfi_offset 6, -16
	movq	%rsp, %rbp
	.cfi_def_cfa_register 6
	subq	$256, %rsp
	movq	%rdi, -232(%rbp)
	movq	%rsi, -240(%rbp)
	movq	%rdx, -248(%rbp)
	movq	%rcx, -256(%rbp)
	movq	%r8, -144(%rbp)
	movq	%r9, -136(%rbp)
	testb	%al, %al
	je	.L148
	movaps	%xmm0, -128(%rbp)
	movaps	%xmm1, -112(%rbp)
	movaps	%xmm2, -96(%rbp)
	movaps	%xmm3, -80(%rbp)
	movaps	%xmm4, -64(%rbp)
	movaps	%xmm5, -48(%rbp)
	movaps	%xmm6, -32(%rbp)
	movaps	%xmm7, -16(%rbp)
.L148:
	movq	%fs:40, %rax
	movq	%rax, -184(%rbp)
	xorl	%eax, %eax
	movq	-232(%rbp), %rax
	movl	256(%rax), %eax
	movl	%eax, %eax
	cmpq	%rax, -240(%rbp)
	ja	.L151
	movq	-248(%rbp), %rax
	movl	%eax, %esi
	movq	-232(%rbp), %rax
	leaq	128(%rax), %rcx
	movq	-240(%rbp), %rax
	subq	$8, %rsp
	leaq	.LC3(%rip), %rdx
	pushq	%rdx
	movl	%esi, %r9d
	movq	%rcx, %r8
	movq	%rax, %rcx
	leaq	.LC22(%rip), %rax
	movq	%rax, %rdx
	movl	$4096, %esi
	leaq	_ZZN3hsm12StateMachine3LogEmmPKczE6buffer(%rip), %rax
	movq	%rax, %rdi
	movl	$0, %eax
	call	snprintf@PLT
	addq	$16, %rsp
	movl	%eax, -212(%rbp)
	movl	$32, -208(%rbp)
	movl	$48, -204(%rbp)
	leaq	16(%rbp), %rax
	movq	%rax, -200(%rbp)
	leaq	-176(%rbp), %rax
	movq	%rax, -192(%rbp)
	movl	-212(%rbp), %eax
	cltq
	movl	$4095, %edx
	movq	%rdx, %rsi
	subq	%rax, %rsi
	movl	-212(%rbp), %eax
	cltq
	leaq	_ZZN3hsm12StateMachine3LogEmmPKczE6buffer(%rip), %rdx
	leaq	(%rax,%rdx), %rdi
	leaq	-208(%rbp), %rdx
	movq	-256(%rbp), %rax
	movq	%rdx, %rcx
	movq	%rax, %rdx
	call	vsnprintf@PLT
	leaq	_ZZN3hsm12StateMachine3LogEmmPKczE6buffer(%rip), %rax
	movq	%rax, %rsi
	leaq	.LC23(%rip), %rax
	movq	%rax, %rdi
	movl	$0, %eax
	call	printf@PLT
.L151:
	nop
	movq	-184(%rbp), %rax
	subq	%fs:40, %rax
	je	.L150
	call	__stack_chk_fail@PLT
.L150:
	leave
	.cfi_def_cfa 7, 8
	ret
	.cfi_endproc
.LFE2852:
	.size	_ZN3hsm12StateMachine3LogEmmPKcz, .-_ZN3hsm12StateMachine3LogEmmPKcz
	.section	.rodata
.LC24:
	.string	"%-8s: %s\n"
	.section	.text._ZN3hsm12StateMachine13LogTransitionEmmPKcPNS_5StateE,"axG",@progbits,_ZN3hsm12StateMachine13LogTransitionEmmPKcPNS_5StateE,comdat
	.align 2
	.weak	_ZN3hsm12StateMachine13LogTransitionEmmPKcPNS_5StateE
	.type	_ZN3hsm12StateMachine13LogTransitionEmmPKcPNS_5StateE, @function
_ZN3hsm12StateMachine13LogTransitionEmmPKcPNS_5StateE:
.LFB2853:
	.cfi_startproc
	endbr64
	pushq	%rbp
	.cfi_def_cfa_offset 16
	.cfi_offset 6, -16
	movq	%rsp, %rbp
	.cfi_def_cfa_register 6
	subq	$48, %rsp
	movq	%rdi, -8(%rbp)
	movq	%rsi, -16(%rbp)
	movq	%rdx, -24(%rbp)
	movq	%rcx, -32(%rbp)
	movq	%r8, -40(%rbp)
	movq	-40(%rbp), %rax
	movq	%rax, %rdi
	call	_ZNK3hsm5State17GetStateDebugNameEv
	movq	%rax, %rcx
	movq	-32(%rbp), %rdi
	movq	-24(%rbp), %rdx
	movq	-16(%rbp), %rsi
	movq	-8(%rbp), %rax
	movq	%rcx, %r9
	movq	%rdi, %r8
	leaq	.LC24(%rip), %rcx
	movq	%rax, %rdi
	movl	$0, %eax
	call	_ZN3hsm12StateMachine3LogEmmPKcz
	nop
	leave
	.cfi_def_cfa 7, 8
	ret
	.cfi_endproc
.LFE2853:
	.size	_ZN3hsm12StateMachine13LogTransitionEmmPKcPNS_5StateE, .-_ZN3hsm12StateMachine13LogTransitionEmmPKcPNS_5StateE
	.globl	gPlaySequence
	.bss
	.type	gPlaySequence, @object
	.size	gPlaySequence, 1
gPlaySequence:
	.zero	1
	.section	.rodata
.LC25:
	.string	"Second"
	.section	.text._ZN8MyStates5First13GetTransitionEv,"axG",@progbits,_ZN8MyStates5First13GetTransitionEv,comdat
	.align 2
	.weak	_ZN8MyStates5First13GetTransitionEv
	.type	_ZN8MyStates5First13GetTransitionEv, @function
_ZN8MyStates5First13GetTransitionEv:
.LFB2854:
	.cfi_startproc
	.cfi_personality 0x9b,DW.ref.__gxx_personality_v0
	.cfi_lsda 0x1b,.LLSDA2854
	endbr64
	pushq	%rbp
	.cfi_def_cfa_offset 16
	.cfi_offset 6, -16
	movq	%rsp, %rbp
	.cfi_def_cfa_register 6
	pushq	%rbx
	subq	$88, %rsp
	.cfi_offset 3, -24
	movq	%rdi, -88(%rbp)
	movq	%rsi, -96(%rbp)
	movq	%fs:40, %rax
	movq	%rax, -24(%rbp)
	xorl	%eax, %eax
	movzbl	gPlaySequence(%rip), %eax
	testb	%al, %al
	je	.L154
	leaq	-65(%rbp), %rax
	movq	%rax, %rdi
	call	_ZNSaIcEC1Ev@PLT
	leaq	-65(%rbp), %rdx
	leaq	-64(%rbp), %rax
	leaq	.LC25(%rip), %rcx
	movq	%rcx, %rsi
	movq	%rax, %rdi
.LEHB10:
	call	_ZNSt7__cxx1112basic_stringIcSt11char_traitsIcESaIcEEC1EPKcRKS3_@PLT
.LEHE10:
	movq	-88(%rbp), %rax
	leaq	-64(%rbp), %rdx
	movq	%rdx, %rsi
	movq	%rax, %rdi
.LEHB11:
	call	_ZN3hsm17SiblingTransitionIN8MyStates6SecondEEENS_10TransitionENSt7__cxx1112basic_stringIcSt11char_traitsIcESaIcEEE
.LEHE11:
	leaq	-64(%rbp), %rax
	movq	%rax, %rdi
	call	_ZNSt7__cxx1112basic_stringIcSt11char_traitsIcESaIcEED1Ev@PLT
	leaq	-65(%rbp), %rax
	movq	%rax, %rdi
	call	_ZNSaIcED1Ev@PLT
	jmp	.L153
.L154:
	movq	-88(%rbp), %rax
	movq	%rax, %rdi
.LEHB12:
	call	_ZN3hsm12NoTransitionEv
	jmp	.L153
.L160:
	endbr64
	movq	%rax, %rbx
	leaq	-64(%rbp), %rax
	movq	%rax, %rdi
	call	_ZNSt7__cxx1112basic_stringIcSt11char_traitsIcESaIcEED1Ev@PLT
	jmp	.L157
.L159:
	endbr64
	movq	%rax, %rbx
.L157:
	leaq	-65(%rbp), %rax
	movq	%rax, %rdi
	call	_ZNSaIcED1Ev@PLT
	movq	%rbx, %rax
	movq	%rax, %rdi
	call	_Unwind_Resume@PLT
.LEHE12:
.L153:
	movq	-24(%rbp), %rax
	subq	%fs:40, %rax
	je	.L158
	call	__stack_chk_fail@PLT
.L158:
	movq	-88(%rbp), %rax
	movq	-8(%rbp), %rbx
	leave
	.cfi_def_cfa 7, 8
	ret
	.cfi_endproc
.LFE2854:
	.section	.gcc_except_table._ZN8MyStates5First13GetTransitionEv,"aG",@progbits,_ZN8MyStates5First13GetTransitionEv,comdat
.LLSDA2854:
	.byte	0xff
	.byte	0xff
	.byte	0x1
	.uleb128 .LLSDACSE2854-.LLSDACSB2854
.LLSDACSB2854:
	.uleb128 .LEHB10-.LFB2854
	.uleb128 .LEHE10-.LEHB10
	.uleb128 .L159-.LFB2854
	.uleb128 0
	.uleb128 .LEHB11-.LFB2854
	.uleb128 .LEHE11-.LEHB11
	.uleb128 .L160-.LFB2854
	.uleb128 0
	.uleb128 .LEHB12-.LFB2854
	.uleb128 .LEHE12-.LEHB12
	.uleb128 0
	.uleb128 0
.LLSDACSE2854:
	.section	.text._ZN8MyStates5First13GetTransitionEv,"axG",@progbits,_ZN8MyStates5First13GetTransitionEv,comdat
	.size	_ZN8MyStates5First13GetTransitionEv, .-_ZN8MyStates5First13GetTransitionEv
	.section	.rodata
.LC26:
	.string	"First::Update"
	.section	.text._ZN8MyStates5First6UpdateEv,"axG",@progbits,_ZN8MyStates5First6UpdateEv,comdat
	.align 2
	.weak	_ZN8MyStates5First6UpdateEv
	.type	_ZN8MyStates5First6UpdateEv, @function
_ZN8MyStates5First6UpdateEv:
.LFB2855:
	.cfi_startproc
	endbr64
	pushq	%rbp
	.cfi_def_cfa_offset 16
	.cfi_offset 6, -16
	movq	%rsp, %rbp
	.cfi_def_cfa_register 6
	subq	$16, %rsp
	movq	%rdi, -8(%rbp)
	leaq	.LC26(%rip), %rax
	movq	%rax, %rdi
	call	puts@PLT
	nop
	leave
	.cfi_def_cfa 7, 8
	ret
	.cfi_endproc
.LFE2855:
	.size	_ZN8MyStates5First6UpdateEv, .-_ZN8MyStates5First6UpdateEv
	.section	.rodata
.LC27:
	.string	"Third"
	.section	.text._ZN8MyStates6Second13GetTransitionEv,"axG",@progbits,_ZN8MyStates6Second13GetTransitionEv,comdat
	.align 2
	.weak	_ZN8MyStates6Second13GetTransitionEv
	.type	_ZN8MyStates6Second13GetTransitionEv, @function
_ZN8MyStates6Second13GetTransitionEv:
.LFB2856:
	.cfi_startproc
	.cfi_personality 0x9b,DW.ref.__gxx_personality_v0
	.cfi_lsda 0x1b,.LLSDA2856
	endbr64
	pushq	%rbp
	.cfi_def_cfa_offset 16
	.cfi_offset 6, -16
	movq	%rsp, %rbp
	.cfi_def_cfa_register 6
	pushq	%rbx
	subq	$88, %rsp
	.cfi_offset 3, -24
	movq	%rdi, -88(%rbp)
	movq	%rsi, -96(%rbp)
	movq	%fs:40, %rax
	movq	%rax, -24(%rbp)
	xorl	%eax, %eax
	movzbl	gPlaySequence(%rip), %eax
	testb	%al, %al
	je	.L163
	leaq	-65(%rbp), %rax
	movq	%rax, %rdi
	call	_ZNSaIcEC1Ev@PLT
	leaq	-65(%rbp), %rdx
	leaq	-64(%rbp), %rax
	leaq	.LC27(%rip), %rcx
	movq	%rcx, %rsi
	movq	%rax, %rdi
.LEHB13:
	call	_ZNSt7__cxx1112basic_stringIcSt11char_traitsIcESaIcEEC1EPKcRKS3_@PLT
.LEHE13:
	movq	-88(%rbp), %rax
	leaq	-64(%rbp), %rdx
	movq	%rdx, %rsi
	movq	%rax, %rdi
.LEHB14:
	call	_ZN3hsm17SiblingTransitionIN8MyStates5ThirdEEENS_10TransitionENSt7__cxx1112basic_stringIcSt11char_traitsIcESaIcEEE
.LEHE14:
	leaq	-64(%rbp), %rax
	movq	%rax, %rdi
	call	_ZNSt7__cxx1112basic_stringIcSt11char_traitsIcESaIcEED1Ev@PLT
	leaq	-65(%rbp), %rax
	movq	%rax, %rdi
	call	_ZNSaIcED1Ev@PLT
	jmp	.L162
.L163:
	movq	-88(%rbp), %rax
	movq	%rax, %rdi
.LEHB15:
	call	_ZN3hsm12NoTransitionEv
	jmp	.L162
.L169:
	endbr64
	movq	%rax, %rbx
	leaq	-64(%rbp), %rax
	movq	%rax, %rdi
	call	_ZNSt7__cxx1112basic_stringIcSt11char_traitsIcESaIcEED1Ev@PLT
	jmp	.L166
.L168:
	endbr64
	movq	%rax, %rbx
.L166:
	leaq	-65(%rbp), %rax
	movq	%rax, %rdi
	call	_ZNSaIcED1Ev@PLT
	movq	%rbx, %rax
	movq	%rax, %rdi
	call	_Unwind_Resume@PLT
.LEHE15:
.L162:
	movq	-24(%rbp), %rax
	subq	%fs:40, %rax
	je	.L167
	call	__stack_chk_fail@PLT
.L167:
	movq	-88(%rbp), %rax
	movq	-8(%rbp), %rbx
	leave
	.cfi_def_cfa 7, 8
	ret
	.cfi_endproc
.LFE2856:
	.section	.gcc_except_table._ZN8MyStates6Second13GetTransitionEv,"aG",@progbits,_ZN8MyStates6Second13GetTransitionEv,comdat
.LLSDA2856:
	.byte	0xff
	.byte	0xff
	.byte	0x1
	.uleb128 .LLSDACSE2856-.LLSDACSB2856
.LLSDACSB2856:
	.uleb128 .LEHB13-.LFB2856
	.uleb128 .LEHE13-.LEHB13
	.uleb128 .L168-.LFB2856
	.uleb128 0
	.uleb128 .LEHB14-.LFB2856
	.uleb128 .LEHE14-.LEHB14
	.uleb128 .L169-.LFB2856
	.uleb128 0
	.uleb128 .LEHB15-.LFB2856
	.uleb128 .LEHE15-.LEHB15
	.uleb128 0
	.uleb128 0
.LLSDACSE2856:
	.section	.text._ZN8MyStates6Second13GetTransitionEv,"axG",@progbits,_ZN8MyStates6Second13GetTransitionEv,comdat
	.size	_ZN8MyStates6Second13GetTransitionEv, .-_ZN8MyStates6Second13GetTransitionEv
	.section	.rodata
.LC28:
	.string	"Second::Update"
	.section	.text._ZN8MyStates6Second6UpdateEv,"axG",@progbits,_ZN8MyStates6Second6UpdateEv,comdat
	.align 2
	.weak	_ZN8MyStates6Second6UpdateEv
	.type	_ZN8MyStates6Second6UpdateEv, @function
_ZN8MyStates6Second6UpdateEv:
.LFB2857:
	.cfi_startproc
	endbr64
	pushq	%rbp
	.cfi_def_cfa_offset 16
	.cfi_offset 6, -16
	movq	%rsp, %rbp
	.cfi_def_cfa_register 6
	subq	$16, %rsp
	movq	%rdi, -8(%rbp)
	leaq	.LC28(%rip), %rax
	movq	%rax, %rdi
	call	puts@PLT
	nop
	leave
	.cfi_def_cfa 7, 8
	ret
	.cfi_endproc
.LFE2857:
	.size	_ZN8MyStates6Second6UpdateEv, .-_ZN8MyStates6Second6UpdateEv
	.section	.text._ZN8MyStates5Third13GetTransitionEv,"axG",@progbits,_ZN8MyStates5Third13GetTransitionEv,comdat
	.align 2
	.weak	_ZN8MyStates5Third13GetTransitionEv
	.type	_ZN8MyStates5Third13GetTransitionEv, @function
_ZN8MyStates5Third13GetTransitionEv:
.LFB2858:
	.cfi_startproc
	endbr64
	pushq	%rbp
	.cfi_def_cfa_offset 16
	.cfi_offset 6, -16
	movq	%rsp, %rbp
	.cfi_def_cfa_register 6
	subq	$32, %rsp
	movq	%rdi, -24(%rbp)
	movq	%rsi, -32(%rbp)
	movq	%fs:40, %rax
	movq	%rax, -8(%rbp)
	xorl	%eax, %eax
	movq	-24(%rbp), %rax
	movq	%rax, %rdi
	call	_ZN3hsm12NoTransitionEv
	movq	-8(%rbp), %rax
	subq	%fs:40, %rax
	je	.L173
	call	__stack_chk_fail@PLT
.L173:
	movq	-24(%rbp), %rax
	leave
	.cfi_def_cfa 7, 8
	ret
	.cfi_endproc
.LFE2858:
	.size	_ZN8MyStates5Third13GetTransitionEv, .-_ZN8MyStates5Third13GetTransitionEv
	.section	.rodata
.LC29:
	.string	"Third::Update"
	.section	.text._ZN8MyStates5Third6UpdateEv,"axG",@progbits,_ZN8MyStates5Third6UpdateEv,comdat
	.align 2
	.weak	_ZN8MyStates5Third6UpdateEv
	.type	_ZN8MyStates5Third6UpdateEv, @function
_ZN8MyStates5Third6UpdateEv:
.LFB2859:
	.cfi_startproc
	endbr64
	pushq	%rbp
	.cfi_def_cfa_offset 16
	.cfi_offset 6, -16
	movq	%rsp, %rbp
	.cfi_def_cfa_register 6
	subq	$16, %rsp
	movq	%rdi, -8(%rbp)
	leaq	.LC29(%rip), %rax
	movq	%rax, %rdi
	call	puts@PLT
	nop
	leave
	.cfi_def_cfa 7, 8
	ret
	.cfi_endproc
.LFE2859:
	.size	_ZN8MyStates5Third6UpdateEv, .-_ZN8MyStates5Third6UpdateEv
	.section	.rodata
.LC30:
	.string	"TestHsm"
	.text
	.globl	main
	.type	main, @function
main:
.LFB2860:
	.cfi_startproc
	.cfi_personality 0x9b,DW.ref.__gxx_personality_v0
	.cfi_lsda 0x1b,.LLSDA2860
	endbr64
	pushq	%rbp
	.cfi_def_cfa_offset 16
	.cfi_offset 6, -16
	movq	%rsp, %rbp
	.cfi_def_cfa_register 6
	pushq	%rbx
	subq	$280, %rsp
	.cfi_offset 3, -24
	movq	%fs:40, %rax
	movq	%rax, -24(%rbp)
	xorl	%eax, %eax
	leaq	-288(%rbp), %rax
	movq	%rax, %rdi
.LEHB16:
	call	_ZN3hsm12StateMachineC1Ev
.LEHE16:
	leaq	-288(%rbp), %rax
	movl	$0, %esi
	movq	%rax, %rdi
.LEHB17:
	call	_ZN3hsm12StateMachine10InitializeIN8MyStates5FirstEEEvPv
	leaq	-288(%rbp), %rax
	movl	$1, %edx
	leaq	.LC30(%rip), %rcx
	movq	%rcx, %rsi
	movq	%rax, %rdi
	call	_ZN3hsm12StateMachine12SetDebugInfoEPKcNS_10TraceLevel4TypeE
	leaq	-288(%rbp), %rax
	movq	%rax, %rdi
	call	_ZN3hsm12StateMachine23ProcessStateTransitionsEv
	leaq	-288(%rbp), %rax
	movq	%rax, %rdi
	call	_ZN3hsm12StateMachine12UpdateStatesEv
	leaq	-288(%rbp), %rax
	movq	%rax, %rdi
	call	_ZN3hsm12StateMachine23ProcessStateTransitionsEv
	leaq	-288(%rbp), %rax
	movq	%rax, %rdi
	call	_ZN3hsm12StateMachine12UpdateStatesEv
	movb	$1, gPlaySequence(%rip)
	leaq	-288(%rbp), %rax
	movq	%rax, %rdi
	call	_ZN3hsm12StateMachine23ProcessStateTransitionsEv
	leaq	-288(%rbp), %rax
	movq	%rax, %rdi
	call	_ZN3hsm12StateMachine12UpdateStatesEv
	leaq	-288(%rbp), %rax
	movq	%rax, %rdi
	call	_ZN3hsm12StateMachine23ProcessStateTransitionsEv
	leaq	-288(%rbp), %rax
	movq	%rax, %rdi
	call	_ZN3hsm12StateMachine12UpdateStatesEv
.LEHE17:
	leaq	-288(%rbp), %rax
	movq	%rax, %rdi
	call	_ZN3hsm12StateMachineD1Ev
	movl	$0, %eax
	movq	-24(%rbp), %rdx
	subq	%fs:40, %rdx
	je	.L178
	jmp	.L180
.L179:
	endbr64
	movq	%rax, %rbx
	leaq	-288(%rbp), %rax
	movq	%rax, %rdi
	call	_ZN3hsm12StateMachineD1Ev
	movq	%rbx, %rax
	movq	%rax, %rdi
.LEHB18:
	call	_Unwind_Resume@PLT
.LEHE18:
.L180:
	call	__stack_chk_fail@PLT
.L178:
	movq	-8(%rbp), %rbx
	leave
	.cfi_def_cfa 7, 8
	ret
	.cfi_endproc
.LFE2860:
	.section	.gcc_except_table,"a",@progbits
.LLSDA2860:
	.byte	0xff
	.byte	0xff
	.byte	0x1
	.uleb128 .LLSDACSE2860-.LLSDACSB2860
.LLSDACSB2860:
	.uleb128 .LEHB16-.LFB2860
	.uleb128 .LEHE16-.LEHB16
	.uleb128 0
	.uleb128 0
	.uleb128 .LEHB17-.LFB2860
	.uleb128 .LEHE17-.LEHB17
	.uleb128 .L179-.LFB2860
	.uleb128 0
	.uleb128 .LEHB18-.LFB2860
	.uleb128 .LEHE18-.LEHB18
	.uleb128 0
	.uleb128 0
.LLSDACSE2860:
	.text
	.size	main, .-main
	.section	.text._ZNSaIPN3hsm18StateValueResetterEEC2Ev,"axG",@progbits,_ZNSaIPN3hsm18StateValueResetterEEC5Ev,comdat
	.align 2
	.weak	_ZNSaIPN3hsm18StateValueResetterEEC2Ev
	.type	_ZNSaIPN3hsm18StateValueResetterEEC2Ev, @function
_ZNSaIPN3hsm18StateValueResetterEEC2Ev:
.LFB3108:
	.cfi_startproc
	endbr64
	pushq	%rbp
	.cfi_def_cfa_offset 16
	.cfi_offset 6, -16
	movq	%rsp, %rbp
	.cfi_def_cfa_register 6
	subq	$16, %rsp
	movq	%rdi, -8(%rbp)
	movq	-8(%rbp), %rax
	movq	%rax, %rdi
	call	_ZN9__gnu_cxx13new_allocatorIPN3hsm18StateValueResetterEEC2Ev
	nop
	leave
	.cfi_def_cfa 7, 8
	ret
	.cfi_endproc
.LFE3108:
	.size	_ZNSaIPN3hsm18StateValueResetterEEC2Ev, .-_ZNSaIPN3hsm18StateValueResetterEEC2Ev
	.weak	_ZNSaIPN3hsm18StateValueResetterEEC1Ev
	.set	_ZNSaIPN3hsm18StateValueResetterEEC1Ev,_ZNSaIPN3hsm18StateValueResetterEEC2Ev
	.section	.text._ZNSaIPN3hsm18StateValueResetterEED2Ev,"axG",@progbits,_ZNSaIPN3hsm18StateValueResetterEED5Ev,comdat
	.align 2
	.weak	_ZNSaIPN3hsm18StateValueResetterEED2Ev
	.type	_ZNSaIPN3hsm18StateValueResetterEED2Ev, @function
_ZNSaIPN3hsm18StateValueResetterEED2Ev:
.LFB3111:
	.cfi_startproc
	endbr64
	pushq	%rbp
	.cfi_def_cfa_offset 16
	.cfi_offset 6, -16
	movq	%rsp, %rbp
	.cfi_def_cfa_register 6
	subq	$16, %rsp
	movq	%rdi, -8(%rbp)
	movq	-8(%rbp), %rax
	movq	%rax, %rdi
	call	_ZN9__gnu_cxx13new_allocatorIPN3hsm18StateValueResetterEED2Ev
	nop
	leave
	.cfi_def_cfa 7, 8
	ret
	.cfi_endproc
.LFE3111:
	.size	_ZNSaIPN3hsm18StateValueResetterEED2Ev, .-_ZNSaIPN3hsm18StateValueResetterEED2Ev
	.weak	_ZNSaIPN3hsm18StateValueResetterEED1Ev
	.set	_ZNSaIPN3hsm18StateValueResetterEED1Ev,_ZNSaIPN3hsm18StateValueResetterEED2Ev
	.section	.text._ZNSt6vectorIPN3hsm18StateValueResetterESaIS2_EEC2EmRKS3_,"axG",@progbits,_ZNSt6vectorIPN3hsm18StateValueResetterESaIS2_EEC5EmRKS3_,comdat
	.align 2
	.weak	_ZNSt6vectorIPN3hsm18StateValueResetterESaIS2_EEC2EmRKS3_
	.type	_ZNSt6vectorIPN3hsm18StateValueResetterESaIS2_EEC2EmRKS3_, @function
_ZNSt6vectorIPN3hsm18StateValueResetterESaIS2_EEC2EmRKS3_:
.LFB3114:
	.cfi_startproc
	.cfi_personality 0x9b,DW.ref.__gxx_personality_v0
	.cfi_lsda 0x1b,.LLSDA3114
	endbr64
	pushq	%rbp
	.cfi_def_cfa_offset 16
	.cfi_offset 6, -16
	movq	%rsp, %rbp
	.cfi_def_cfa_register 6
	pushq	%rbx
	subq	$40, %rsp
	.cfi_offset 3, -24
	movq	%rdi, -24(%rbp)
	movq	%rsi, -32(%rbp)
	movq	%rdx, -40(%rbp)
	movq	-24(%rbp), %rbx
	movq	-40(%rbp), %rdx
	movq	-32(%rbp), %rax
	movq	%rdx, %rsi
	movq	%rax, %rdi
.LEHB19:
	call	_ZNSt6vectorIPN3hsm18StateValueResetterESaIS2_EE17_S_check_init_lenEmRKS3_
	movq	%rax, %rcx
	movq	-40(%rbp), %rax
	movq	%rax, %rdx
	movq	%rcx, %rsi
	movq	%rbx, %rdi
	call	_ZNSt12_Vector_baseIPN3hsm18StateValueResetterESaIS2_EEC2EmRKS3_
.LEHE19:
	movq	-32(%rbp), %rdx
	movq	-24(%rbp), %rax
	movq	%rdx, %rsi
	movq	%rax, %rdi
.LEHB20:
	call	_ZNSt6vectorIPN3hsm18StateValueResetterESaIS2_EE21_M_default_initializeEm
.LEHE20:
	jmp	.L186
.L185:
	endbr64
	movq	%rax, %rbx
	movq	-24(%rbp), %rax
	movq	%rax, %rdi
	call	_ZNSt12_Vector_baseIPN3hsm18StateValueResetterESaIS2_EED2Ev
	movq	%rbx, %rax
	movq	%rax, %rdi
.LEHB21:
	call	_Unwind_Resume@PLT
.LEHE21:
.L186:
	movq	-8(%rbp), %rbx
	leave
	.cfi_def_cfa 7, 8
	ret
	.cfi_endproc
.LFE3114:
	.section	.gcc_except_table
.LLSDA3114:
	.byte	0xff
	.byte	0xff
	.byte	0x1
	.uleb128 .LLSDACSE3114-.LLSDACSB3114
.LLSDACSB3114:
	.uleb128 .LEHB19-.LFB3114
	.uleb128 .LEHE19-.LEHB19
	.uleb128 0
	.uleb128 0
	.uleb128 .LEHB20-.LFB3114
	.uleb128 .LEHE20-.LEHB20
	.uleb128 .L185-.LFB3114
	.uleb128 0
	.uleb128 .LEHB21-.LFB3114
	.uleb128 .LEHE21-.LEHB21
	.uleb128 0
	.uleb128 0
.LLSDACSE3114:
	.section	.text._ZNSt6vectorIPN3hsm18StateValueResetterESaIS2_EEC2EmRKS3_,"axG",@progbits,_ZNSt6vectorIPN3hsm18StateValueResetterESaIS2_EEC5EmRKS3_,comdat
	.size	_ZNSt6vectorIPN3hsm18StateValueResetterESaIS2_EEC2EmRKS3_, .-_ZNSt6vectorIPN3hsm18StateValueResetterESaIS2_EEC2EmRKS3_
	.weak	_ZNSt6vectorIPN3hsm18StateValueResetterESaIS2_EEC1EmRKS3_
	.set	_ZNSt6vectorIPN3hsm18StateValueResetterESaIS2_EEC1EmRKS3_,_ZNSt6vectorIPN3hsm18StateValueResetterESaIS2_EEC2EmRKS3_
	.section	.text._ZNSt6vectorIPN3hsm18StateValueResetterESaIS2_EED2Ev,"axG",@progbits,_ZNSt6vectorIPN3hsm18StateValueResetterESaIS2_EED5Ev,comdat
	.align 2
	.weak	_ZNSt6vectorIPN3hsm18StateValueResetterESaIS2_EED2Ev
	.type	_ZNSt6vectorIPN3hsm18StateValueResetterESaIS2_EED2Ev, @function
_ZNSt6vectorIPN3hsm18StateValueResetterESaIS2_EED2Ev:
.LFB3117:
	.cfi_startproc
	.cfi_personality 0x9b,DW.ref.__gxx_personality_v0
	.cfi_lsda 0x1b,.LLSDA3117
	endbr64
	pushq	%rbp
	.cfi_def_cfa_offset 16
	.cfi_offset 6, -16
	movq	%rsp, %rbp
	.cfi_def_cfa_register 6
	subq	$16, %rsp
	movq	%rdi, -8(%rbp)
	movq	-8(%rbp), %rax
	movq	%rax, %rdi
	call	_ZNSt12_Vector_baseIPN3hsm18StateValueResetterESaIS2_EE19_M_get_Tp_allocatorEv
	movq	%rax, %rdx
	movq	-8(%rbp), %rax
	movq	8(%rax), %rcx
	movq	-8(%rbp), %rax
	movq	(%rax), %rax
	movq	%rcx, %rsi
	movq	%rax, %rdi
	call	_ZSt8_DestroyIPPN3hsm18StateValueResetterES2_EvT_S4_RSaIT0_E
	movq	-8(%rbp), %rax
	movq	%rax, %rdi
	call	_ZNSt12_Vector_baseIPN3hsm18StateValueResetterESaIS2_EED2Ev
	nop
	leave
	.cfi_def_cfa 7, 8
	ret
	.cfi_endproc
.LFE3117:
	.section	.gcc_except_table
.LLSDA3117:
	.byte	0xff
	.byte	0xff
	.byte	0x1
	.uleb128 .LLSDACSE3117-.LLSDACSB3117
.LLSDACSB3117:
.LLSDACSE3117:
	.section	.text._ZNSt6vectorIPN3hsm18StateValueResetterESaIS2_EED2Ev,"axG",@progbits,_ZNSt6vectorIPN3hsm18StateValueResetterESaIS2_EED5Ev,comdat
	.size	_ZNSt6vectorIPN3hsm18StateValueResetterESaIS2_EED2Ev, .-_ZNSt6vectorIPN3hsm18StateValueResetterESaIS2_EED2Ev
	.weak	_ZNSt6vectorIPN3hsm18StateValueResetterESaIS2_EED1Ev
	.set	_ZNSt6vectorIPN3hsm18StateValueResetterESaIS2_EED1Ev,_ZNSt6vectorIPN3hsm18StateValueResetterESaIS2_EED2Ev
	.section	.text._ZNSt6vectorIPN3hsm18StateValueResetterESaIS2_EE5beginEv,"axG",@progbits,_ZNSt6vectorIPN3hsm18StateValueResetterESaIS2_EE5beginEv,comdat
	.align 2
	.weak	_ZNSt6vectorIPN3hsm18StateValueResetterESaIS2_EE5beginEv
	.type	_ZNSt6vectorIPN3hsm18StateValueResetterESaIS2_EE5beginEv, @function
_ZNSt6vectorIPN3hsm18StateValueResetterESaIS2_EE5beginEv:
.LFB3119:
	.cfi_startproc
	endbr64
	pushq	%rbp
	.cfi_def_cfa_offset 16
	.cfi_offset 6, -16
	movq	%rsp, %rbp
	.cfi_def_cfa_register 6
	subq	$32, %rsp
	movq	%rdi, -24(%rbp)
	movq	%fs:40, %rax
	movq	%rax, -8(%rbp)
	xorl	%eax, %eax
	movq	-24(%rbp), %rdx
	leaq	-16(%rbp), %rax
	movq	%rdx, %rsi
	movq	%rax, %rdi
	call	_ZN9__gnu_cxx17__normal_iteratorIPPN3hsm18StateValueResetterESt6vectorIS3_SaIS3_EEEC1ERKS4_
	movq	-16(%rbp), %rax
	movq	-8(%rbp), %rdx
	subq	%fs:40, %rdx
	je	.L190
	call	__stack_chk_fail@PLT
.L190:
	leave
	.cfi_def_cfa 7, 8
	ret
	.cfi_endproc
.LFE3119:
	.size	_ZNSt6vectorIPN3hsm18StateValueResetterESaIS2_EE5beginEv, .-_ZNSt6vectorIPN3hsm18StateValueResetterESaIS2_EE5beginEv
	.section	.text._ZNSt6vectorIPN3hsm18StateValueResetterESaIS2_EE3endEv,"axG",@progbits,_ZNSt6vectorIPN3hsm18StateValueResetterESaIS2_EE3endEv,comdat
	.align 2
	.weak	_ZNSt6vectorIPN3hsm18StateValueResetterESaIS2_EE3endEv
	.type	_ZNSt6vectorIPN3hsm18StateValueResetterESaIS2_EE3endEv, @function
_ZNSt6vectorIPN3hsm18StateValueResetterESaIS2_EE3endEv:
.LFB3120:
	.cfi_startproc
	endbr64
	pushq	%rbp
	.cfi_def_cfa_offset 16
	.cfi_offset 6, -16
	movq	%rsp, %rbp
	.cfi_def_cfa_register 6
	subq	$32, %rsp
	movq	%rdi, -24(%rbp)
	movq	%fs:40, %rax
	movq	%rax, -8(%rbp)
	xorl	%eax, %eax
	movq	-24(%rbp), %rax
	leaq	8(%rax), %rdx
	leaq	-16(%rbp), %rax
	movq	%rdx, %rsi
	movq	%rax, %rdi
	call	_ZN9__gnu_cxx17__normal_iteratorIPPN3hsm18StateValueResetterESt6vectorIS3_SaIS3_EEEC1ERKS4_
	movq	-16(%rbp), %rax
	movq	-8(%rbp), %rdx
	subq	%fs:40, %rdx
	je	.L193
	call	__stack_chk_fail@PLT
.L193:
	leave
	.cfi_def_cfa 7, 8
	ret
	.cfi_endproc
.LFE3120:
	.size	_ZNSt6vectorIPN3hsm18StateValueResetterESaIS2_EE3endEv, .-_ZNSt6vectorIPN3hsm18StateValueResetterESaIS2_EE3endEv
	.section	.text._ZN9__gnu_cxxneIPPN3hsm18StateValueResetterESt6vectorIS3_SaIS3_EEEEbRKNS_17__normal_iteratorIT_T0_EESD_,"axG",@progbits,_ZN9__gnu_cxxneIPPN3hsm18StateValueResetterESt6vectorIS3_SaIS3_EEEEbRKNS_17__normal_iteratorIT_T0_EESD_,comdat
	.weak	_ZN9__gnu_cxxneIPPN3hsm18StateValueResetterESt6vectorIS3_SaIS3_EEEEbRKNS_17__normal_iteratorIT_T0_EESD_
	.type	_ZN9__gnu_cxxneIPPN3hsm18StateValueResetterESt6vectorIS3_SaIS3_EEEEbRKNS_17__normal_iteratorIT_T0_EESD_, @function
_ZN9__gnu_cxxneIPPN3hsm18StateValueResetterESt6vectorIS3_SaIS3_EEEEbRKNS_17__normal_iteratorIT_T0_EESD_:
.LFB3121:
	.cfi_startproc
	endbr64
	pushq	%rbp
	.cfi_def_cfa_offset 16
	.cfi_offset 6, -16
	movq	%rsp, %rbp
	.cfi_def_cfa_register 6
	pushq	%rbx
	subq	$24, %rsp
	.cfi_offset 3, -24
	movq	%rdi, -24(%rbp)
	movq	%rsi, -32(%rbp)
	movq	-24(%rbp), %rax
	movq	%rax, %rdi
	call	_ZNK9__gnu_cxx17__normal_iteratorIPPN3hsm18StateValueResetterESt6vectorIS3_SaIS3_EEE4baseEv
	movq	(%rax), %rbx
	movq	-32(%rbp), %rax
	movq	%rax, %rdi
	call	_ZNK9__gnu_cxx17__normal_iteratorIPPN3hsm18StateValueResetterESt6vectorIS3_SaIS3_EEE4baseEv
	movq	(%rax), %rax
	cmpq	%rax, %rbx
	setne	%al
	movq	-8(%rbp), %rbx
	leave
	.cfi_def_cfa 7, 8
	ret
	.cfi_endproc
.LFE3121:
	.size	_ZN9__gnu_cxxneIPPN3hsm18StateValueResetterESt6vectorIS3_SaIS3_EEEEbRKNS_17__normal_iteratorIT_T0_EESD_, .-_ZN9__gnu_cxxneIPPN3hsm18StateValueResetterESt6vectorIS3_SaIS3_EEEEbRKNS_17__normal_iteratorIT_T0_EESD_
	.section	.text._ZN9__gnu_cxx17__normal_iteratorIPPN3hsm18StateValueResetterESt6vectorIS3_SaIS3_EEEppEv,"axG",@progbits,_ZN9__gnu_cxx17__normal_iteratorIPPN3hsm18StateValueResetterESt6vectorIS3_SaIS3_EEEppEv,comdat
	.align 2
	.weak	_ZN9__gnu_cxx17__normal_iteratorIPPN3hsm18StateValueResetterESt6vectorIS3_SaIS3_EEEppEv
	.type	_ZN9__gnu_cxx17__normal_iteratorIPPN3hsm18StateValueResetterESt6vectorIS3_SaIS3_EEEppEv, @function
_ZN9__gnu_cxx17__normal_iteratorIPPN3hsm18StateValueResetterESt6vectorIS3_SaIS3_EEEppEv:
.LFB3122:
	.cfi_startproc
	endbr64
	pushq	%rbp
	.cfi_def_cfa_offset 16
	.cfi_offset 6, -16
	movq	%rsp, %rbp
	.cfi_def_cfa_register 6
	movq	%rdi, -8(%rbp)
	movq	-8(%rbp), %rax
	movq	(%rax), %rax
	leaq	8(%rax), %rdx
	movq	-8(%rbp), %rax
	movq	%rdx, (%rax)
	movq	-8(%rbp), %rax
	popq	%rbp
	.cfi_def_cfa 7, 8
	ret
	.cfi_endproc
.LFE3122:
	.size	_ZN9__gnu_cxx17__normal_iteratorIPPN3hsm18StateValueResetterESt6vectorIS3_SaIS3_EEEppEv, .-_ZN9__gnu_cxx17__normal_iteratorIPPN3hsm18StateValueResetterESt6vectorIS3_SaIS3_EEEppEv
	.section	.text._ZNK9__gnu_cxx17__normal_iteratorIPPN3hsm18StateValueResetterESt6vectorIS3_SaIS3_EEEdeEv,"axG",@progbits,_ZNK9__gnu_cxx17__normal_iteratorIPPN3hsm18StateValueResetterESt6vectorIS3_SaIS3_EEEdeEv,comdat
	.align 2
	.weak	_ZNK9__gnu_cxx17__normal_iteratorIPPN3hsm18StateValueResetterESt6vectorIS3_SaIS3_EEEdeEv
	.type	_ZNK9__gnu_cxx17__normal_iteratorIPPN3hsm18StateValueResetterESt6vectorIS3_SaIS3_EEEdeEv, @function
_ZNK9__gnu_cxx17__normal_iteratorIPPN3hsm18StateValueResetterESt6vectorIS3_SaIS3_EEEdeEv:
.LFB3123:
	.cfi_startproc
	endbr64
	pushq	%rbp
	.cfi_def_cfa_offset 16
	.cfi_offset 6, -16
	movq	%rsp, %rbp
	.cfi_def_cfa_register 6
	movq	%rdi, -8(%rbp)
	movq	-8(%rbp), %rax
	movq	(%rax), %rax
	popq	%rbp
	.cfi_def_cfa 7, 8
	ret
	.cfi_endproc
.LFE3123:
	.size	_ZNK9__gnu_cxx17__normal_iteratorIPPN3hsm18StateValueResetterESt6vectorIS3_SaIS3_EEEdeEv, .-_ZNK9__gnu_cxx17__normal_iteratorIPPN3hsm18StateValueResetterESt6vectorIS3_SaIS3_EEEdeEv
	.section	.text._ZNSt6vectorIPN3hsm18StateValueResetterESaIS2_EE5clearEv,"axG",@progbits,_ZNSt6vectorIPN3hsm18StateValueResetterESaIS2_EE5clearEv,comdat
	.align 2
	.weak	_ZNSt6vectorIPN3hsm18StateValueResetterESaIS2_EE5clearEv
	.type	_ZNSt6vectorIPN3hsm18StateValueResetterESaIS2_EE5clearEv, @function
_ZNSt6vectorIPN3hsm18StateValueResetterESaIS2_EE5clearEv:
.LFB3124:
	.cfi_startproc
	endbr64
	pushq	%rbp
	.cfi_def_cfa_offset 16
	.cfi_offset 6, -16
	movq	%rsp, %rbp
	.cfi_def_cfa_register 6
	subq	$16, %rsp
	movq	%rdi, -8(%rbp)
	movq	-8(%rbp), %rax
	movq	(%rax), %rdx
	movq	-8(%rbp), %rax
	movq	%rdx, %rsi
	movq	%rax, %rdi
	call	_ZNSt6vectorIPN3hsm18StateValueResetterESaIS2_EE15_M_erase_at_endEPS2_
	nop
	leave
	.cfi_def_cfa 7, 8
	ret
	.cfi_endproc
.LFE3124:
	.size	_ZNSt6vectorIPN3hsm18StateValueResetterESaIS2_EE5clearEv, .-_ZNSt6vectorIPN3hsm18StateValueResetterESaIS2_EE5clearEv
	.section	.text._ZNKSt6vectorIPN3hsm5StateESaIS2_EE5emptyEv,"axG",@progbits,_ZNKSt6vectorIPN3hsm5StateESaIS2_EE5emptyEv,comdat
	.align 2
	.weak	_ZNKSt6vectorIPN3hsm5StateESaIS2_EE5emptyEv
	.type	_ZNKSt6vectorIPN3hsm5StateESaIS2_EE5emptyEv, @function
_ZNKSt6vectorIPN3hsm5StateESaIS2_EE5emptyEv:
.LFB3125:
	.cfi_startproc
	endbr64
	pushq	%rbp
	.cfi_def_cfa_offset 16
	.cfi_offset 6, -16
	movq	%rsp, %rbp
	.cfi_def_cfa_register 6
	subq	$48, %rsp
	movq	%rdi, -40(%rbp)
	movq	%fs:40, %rax
	movq	%rax, -8(%rbp)
	xorl	%eax, %eax
	movq	-40(%rbp), %rax
	movq	%rax, %rdi
	call	_ZNKSt6vectorIPN3hsm5StateESaIS2_EE3endEv
	movq	%rax, -16(%rbp)
	movq	-40(%rbp), %rax
	movq	%rax, %rdi
	call	_ZNKSt6vectorIPN3hsm5StateESaIS2_EE5beginEv
	movq	%rax, -24(%rbp)
	leaq	-16(%rbp), %rdx
	leaq	-24(%rbp), %rax
	movq	%rdx, %rsi
	movq	%rax, %rdi
	call	_ZN9__gnu_cxxeqIPKPN3hsm5StateESt6vectorIS3_SaIS3_EEEEbRKNS_17__normal_iteratorIT_T0_EESE_
	movq	-8(%rbp), %rdx
	subq	%fs:40, %rdx
	je	.L203
	call	__stack_chk_fail@PLT
.L203:
	leave
	.cfi_def_cfa 7, 8
	ret
	.cfi_endproc
.LFE3125:
	.size	_ZNKSt6vectorIPN3hsm5StateESaIS2_EE5emptyEv, .-_ZNKSt6vectorIPN3hsm5StateESaIS2_EE5emptyEv
	.section	.text._ZNSt6vectorIPN3hsm5StateESaIS2_EE5beginEv,"axG",@progbits,_ZNSt6vectorIPN3hsm5StateESaIS2_EE5beginEv,comdat
	.align 2
	.weak	_ZNSt6vectorIPN3hsm5StateESaIS2_EE5beginEv
	.type	_ZNSt6vectorIPN3hsm5StateESaIS2_EE5beginEv, @function
_ZNSt6vectorIPN3hsm5StateESaIS2_EE5beginEv:
.LFB3126:
	.cfi_startproc
	endbr64
	pushq	%rbp
	.cfi_def_cfa_offset 16
	.cfi_offset 6, -16
	movq	%rsp, %rbp
	.cfi_def_cfa_register 6
	subq	$32, %rsp
	movq	%rdi, -24(%rbp)
	movq	%fs:40, %rax
	movq	%rax, -8(%rbp)
	xorl	%eax, %eax
	movq	-24(%rbp), %rdx
	leaq	-16(%rbp), %rax
	movq	%rdx, %rsi
	movq	%rax, %rdi
	call	_ZN9__gnu_cxx17__normal_iteratorIPPN3hsm5StateESt6vectorIS3_SaIS3_EEEC1ERKS4_
	movq	-16(%rbp), %rax
	movq	-8(%rbp), %rdx
	subq	%fs:40, %rdx
	je	.L206
	call	__stack_chk_fail@PLT
.L206:
	leave
	.cfi_def_cfa 7, 8
	ret
	.cfi_endproc
.LFE3126:
	.size	_ZNSt6vectorIPN3hsm5StateESaIS2_EE5beginEv, .-_ZNSt6vectorIPN3hsm5StateESaIS2_EE5beginEv
	.section	.text._ZNSt6vectorIPN3hsm5StateESaIS2_EE3endEv,"axG",@progbits,_ZNSt6vectorIPN3hsm5StateESaIS2_EE3endEv,comdat
	.align 2
	.weak	_ZNSt6vectorIPN3hsm5StateESaIS2_EE3endEv
	.type	_ZNSt6vectorIPN3hsm5StateESaIS2_EE3endEv, @function
_ZNSt6vectorIPN3hsm5StateESaIS2_EE3endEv:
.LFB3127:
	.cfi_startproc
	endbr64
	pushq	%rbp
	.cfi_def_cfa_offset 16
	.cfi_offset 6, -16
	movq	%rsp, %rbp
	.cfi_def_cfa_register 6
	subq	$32, %rsp
	movq	%rdi, -24(%rbp)
	movq	%fs:40, %rax
	movq	%rax, -8(%rbp)
	xorl	%eax, %eax
	movq	-24(%rbp), %rax
	leaq	8(%rax), %rdx
	leaq	-16(%rbp), %rax
	movq	%rdx, %rsi
	movq	%rax, %rdi
	call	_ZN9__gnu_cxx17__normal_iteratorIPPN3hsm5StateESt6vectorIS3_SaIS3_EEEC1ERKS4_
	movq	-16(%rbp), %rax
	movq	-8(%rbp), %rdx
	subq	%fs:40, %rdx
	je	.L209
	call	__stack_chk_fail@PLT
.L209:
	leave
	.cfi_def_cfa 7, 8
	ret
	.cfi_endproc
.LFE3127:
	.size	_ZNSt6vectorIPN3hsm5StateESaIS2_EE3endEv, .-_ZNSt6vectorIPN3hsm5StateESaIS2_EE3endEv
	.section	.text._ZNSt12_Vector_baseIPN3hsm5StateESaIS2_EE12_Vector_implC2Ev,"axG",@progbits,_ZNSt12_Vector_baseIPN3hsm5StateESaIS2_EE12_Vector_implC5Ev,comdat
	.align 2
	.weak	_ZNSt12_Vector_baseIPN3hsm5StateESaIS2_EE12_Vector_implC2Ev
	.type	_ZNSt12_Vector_baseIPN3hsm5StateESaIS2_EE12_Vector_implC2Ev, @function
_ZNSt12_Vector_baseIPN3hsm5StateESaIS2_EE12_Vector_implC2Ev:
.LFB3134:
	.cfi_startproc
	endbr64
	pushq	%rbp
	.cfi_def_cfa_offset 16
	.cfi_offset 6, -16
	movq	%rsp, %rbp
	.cfi_def_cfa_register 6
	subq	$16, %rsp
	movq	%rdi, -8(%rbp)
	movq	-8(%rbp), %rax
	movq	%rax, %rdi
	call	_ZNSaIPN3hsm5StateEEC2Ev
	movq	-8(%rbp), %rax
	movq	%rax, %rdi
	call	_ZNSt12_Vector_baseIPN3hsm5StateESaIS2_EE17_Vector_impl_dataC2Ev
	nop
	leave
	.cfi_def_cfa 7, 8
	ret
	.cfi_endproc
.LFE3134:
	.size	_ZNSt12_Vector_baseIPN3hsm5StateESaIS2_EE12_Vector_implC2Ev, .-_ZNSt12_Vector_baseIPN3hsm5StateESaIS2_EE12_Vector_implC2Ev
	.weak	_ZNSt12_Vector_baseIPN3hsm5StateESaIS2_EE12_Vector_implC1Ev
	.set	_ZNSt12_Vector_baseIPN3hsm5StateESaIS2_EE12_Vector_implC1Ev,_ZNSt12_Vector_baseIPN3hsm5StateESaIS2_EE12_Vector_implC2Ev
	.section	.text._ZNSaIPN3hsm5StateEED2Ev,"axG",@progbits,_ZNSaIPN3hsm5StateEED5Ev,comdat
	.align 2
	.weak	_ZNSaIPN3hsm5StateEED2Ev
	.type	_ZNSaIPN3hsm5StateEED2Ev, @function
_ZNSaIPN3hsm5StateEED2Ev:
.LFB3137:
	.cfi_startproc
	endbr64
	pushq	%rbp
	.cfi_def_cfa_offset 16
	.cfi_offset 6, -16
	movq	%rsp, %rbp
	.cfi_def_cfa_register 6
	subq	$16, %rsp
	movq	%rdi, -8(%rbp)
	movq	-8(%rbp), %rax
	movq	%rax, %rdi
	call	_ZN9__gnu_cxx13new_allocatorIPN3hsm5StateEED2Ev
	nop
	leave
	.cfi_def_cfa 7, 8
	ret
	.cfi_endproc
.LFE3137:
	.size	_ZNSaIPN3hsm5StateEED2Ev, .-_ZNSaIPN3hsm5StateEED2Ev
	.weak	_ZNSaIPN3hsm5StateEED1Ev
	.set	_ZNSaIPN3hsm5StateEED1Ev,_ZNSaIPN3hsm5StateEED2Ev
	.section	.text._ZNSt12_Vector_baseIPN3hsm5StateESaIS2_EED2Ev,"axG",@progbits,_ZNSt12_Vector_baseIPN3hsm5StateESaIS2_EED5Ev,comdat
	.align 2
	.weak	_ZNSt12_Vector_baseIPN3hsm5StateESaIS2_EED2Ev
	.type	_ZNSt12_Vector_baseIPN3hsm5StateESaIS2_EED2Ev, @function
_ZNSt12_Vector_baseIPN3hsm5StateESaIS2_EED2Ev:
.LFB3140:
	.cfi_startproc
	.cfi_personality 0x9b,DW.ref.__gxx_personality_v0
	.cfi_lsda 0x1b,.LLSDA3140
	endbr64
	pushq	%rbp
	.cfi_def_cfa_offset 16
	.cfi_offset 6, -16
	movq	%rsp, %rbp
	.cfi_def_cfa_register 6
	subq	$16, %rsp
	movq	%rdi, -8(%rbp)
	movq	-8(%rbp), %rax
	movq	16(%rax), %rdx
	movq	-8(%rbp), %rax
	movq	(%rax), %rcx
	movq	%rdx, %rax
	subq	%rcx, %rax
	sarq	$3, %rax
	movq	%rax, %rdx
	movq	-8(%rbp), %rax
	movq	(%rax), %rcx
	movq	-8(%rbp), %rax
	movq	%rcx, %rsi
	movq	%rax, %rdi
	call	_ZNSt12_Vector_baseIPN3hsm5StateESaIS2_EE13_M_deallocateEPS2_m
	movq	-8(%rbp), %rax
	movq	%rax, %rdi
	call	_ZNSt12_Vector_baseIPN3hsm5StateESaIS2_EE12_Vector_implD1Ev
	nop
	leave
	.cfi_def_cfa 7, 8
	ret
	.cfi_endproc
.LFE3140:
	.section	.gcc_except_table
.LLSDA3140:
	.byte	0xff
	.byte	0xff
	.byte	0x1
	.uleb128 .LLSDACSE3140-.LLSDACSB3140
.LLSDACSB3140:
.LLSDACSE3140:
	.section	.text._ZNSt12_Vector_baseIPN3hsm5StateESaIS2_EED2Ev,"axG",@progbits,_ZNSt12_Vector_baseIPN3hsm5StateESaIS2_EED5Ev,comdat
	.size	_ZNSt12_Vector_baseIPN3hsm5StateESaIS2_EED2Ev, .-_ZNSt12_Vector_baseIPN3hsm5StateESaIS2_EED2Ev
	.weak	_ZNSt12_Vector_baseIPN3hsm5StateESaIS2_EED1Ev
	.set	_ZNSt12_Vector_baseIPN3hsm5StateESaIS2_EED1Ev,_ZNSt12_Vector_baseIPN3hsm5StateESaIS2_EED2Ev
	.section	.text._ZNSt6vectorIPN3hsm5StateESaIS2_EED2Ev,"axG",@progbits,_ZNSt6vectorIPN3hsm5StateESaIS2_EED5Ev,comdat
	.align 2
	.weak	_ZNSt6vectorIPN3hsm5StateESaIS2_EED2Ev
	.type	_ZNSt6vectorIPN3hsm5StateESaIS2_EED2Ev, @function
_ZNSt6vectorIPN3hsm5StateESaIS2_EED2Ev:
.LFB3143:
	.cfi_startproc
	.cfi_personality 0x9b,DW.ref.__gxx_personality_v0
	.cfi_lsda 0x1b,.LLSDA3143
	endbr64
	pushq	%rbp
	.cfi_def_cfa_offset 16
	.cfi_offset 6, -16
	movq	%rsp, %rbp
	.cfi_def_cfa_register 6
	subq	$16, %rsp
	movq	%rdi, -8(%rbp)
	movq	-8(%rbp), %rax
	movq	%rax, %rdi
	call	_ZNSt12_Vector_baseIPN3hsm5StateESaIS2_EE19_M_get_Tp_allocatorEv
	movq	%rax, %rdx
	movq	-8(%rbp), %rax
	movq	8(%rax), %rcx
	movq	-8(%rbp), %rax
	movq	(%rax), %rax
	movq	%rcx, %rsi
	movq	%rax, %rdi
	call	_ZSt8_DestroyIPPN3hsm5StateES2_EvT_S4_RSaIT0_E
	movq	-8(%rbp), %rax
	movq	%rax, %rdi
	call	_ZNSt12_Vector_baseIPN3hsm5StateESaIS2_EED2Ev
	nop
	leave
	.cfi_def_cfa 7, 8
	ret
	.cfi_endproc
.LFE3143:
	.section	.gcc_except_table
.LLSDA3143:
	.byte	0xff
	.byte	0xff
	.byte	0x1
	.uleb128 .LLSDACSE3143-.LLSDACSB3143
.LLSDACSB3143:
.LLSDACSE3143:
	.section	.text._ZNSt6vectorIPN3hsm5StateESaIS2_EED2Ev,"axG",@progbits,_ZNSt6vectorIPN3hsm5StateESaIS2_EED5Ev,comdat
	.size	_ZNSt6vectorIPN3hsm5StateESaIS2_EED2Ev, .-_ZNSt6vectorIPN3hsm5StateESaIS2_EED2Ev
	.weak	_ZNSt6vectorIPN3hsm5StateESaIS2_EED1Ev
	.set	_ZNSt6vectorIPN3hsm5StateESaIS2_EED1Ev,_ZNSt6vectorIPN3hsm5StateESaIS2_EED2Ev
	.section	.text._ZNSt8_Rb_treeIPKN3hsm12StateFactoryESt4pairIKS3_S3_ESt10_Select1stIS6_ESt4lessIS3_ESaIS6_EE13_Rb_tree_implISA_Lb1EEC2Ev,"axG",@progbits,_ZNSt8_Rb_treeIPKN3hsm12StateFactoryESt4pairIKS3_S3_ESt10_Select1stIS6_ESt4lessIS3_ESaIS6_EE13_Rb_tree_implISA_Lb1EEC5Ev,comdat
	.align 2
	.weak	_ZNSt8_Rb_treeIPKN3hsm12StateFactoryESt4pairIKS3_S3_ESt10_Select1stIS6_ESt4lessIS3_ESaIS6_EE13_Rb_tree_implISA_Lb1EEC2Ev
	.type	_ZNSt8_Rb_treeIPKN3hsm12StateFactoryESt4pairIKS3_S3_ESt10_Select1stIS6_ESt4lessIS3_ESaIS6_EE13_Rb_tree_implISA_Lb1EEC2Ev, @function
_ZNSt8_Rb_treeIPKN3hsm12StateFactoryESt4pairIKS3_S3_ESt10_Select1stIS6_ESt4lessIS3_ESaIS6_EE13_Rb_tree_implISA_Lb1EEC2Ev:
.LFB3146:
	.cfi_startproc
	endbr64
	pushq	%rbp
	.cfi_def_cfa_offset 16
	.cfi_offset 6, -16
	movq	%rsp, %rbp
	.cfi_def_cfa_register 6
	subq	$16, %rsp
	movq	%rdi, -8(%rbp)
	movq	-8(%rbp), %rax
	movq	%rax, %rdi
	call	_ZNSaISt13_Rb_tree_nodeISt4pairIKPKN3hsm12StateFactoryES4_EEEC2Ev
	movq	-8(%rbp), %rax
	movq	%rax, %rdi
	call	_ZNSt20_Rb_tree_key_compareISt4lessIPKN3hsm12StateFactoryEEEC2Ev
	movq	-8(%rbp), %rax
	addq	$8, %rax
	movq	%rax, %rdi
	call	_ZNSt15_Rb_tree_headerC2Ev
	nop
	leave
	.cfi_def_cfa 7, 8
	ret
	.cfi_endproc
.LFE3146:
	.size	_ZNSt8_Rb_treeIPKN3hsm12StateFactoryESt4pairIKS3_S3_ESt10_Select1stIS6_ESt4lessIS3_ESaIS6_EE13_Rb_tree_implISA_Lb1EEC2Ev, .-_ZNSt8_Rb_treeIPKN3hsm12StateFactoryESt4pairIKS3_S3_ESt10_Select1stIS6_ESt4lessIS3_ESaIS6_EE13_Rb_tree_implISA_Lb1EEC2Ev
	.weak	_ZNSt8_Rb_treeIPKN3hsm12StateFactoryESt4pairIKS3_S3_ESt10_Select1stIS6_ESt4lessIS3_ESaIS6_EE13_Rb_tree_implISA_Lb1EEC1Ev
	.set	_ZNSt8_Rb_treeIPKN3hsm12StateFactoryESt4pairIKS3_S3_ESt10_Select1stIS6_ESt4lessIS3_ESaIS6_EE13_Rb_tree_implISA_Lb1EEC1Ev,_ZNSt8_Rb_treeIPKN3hsm12StateFactoryESt4pairIKS3_S3_ESt10_Select1stIS6_ESt4lessIS3_ESaIS6_EE13_Rb_tree_implISA_Lb1EEC2Ev
	.section	.text._ZNSaISt13_Rb_tree_nodeISt4pairIKPKN3hsm12StateFactoryES4_EEED2Ev,"axG",@progbits,_ZNSaISt13_Rb_tree_nodeISt4pairIKPKN3hsm12StateFactoryES4_EEED5Ev,comdat
	.align 2
	.weak	_ZNSaISt13_Rb_tree_nodeISt4pairIKPKN3hsm12StateFactoryES4_EEED2Ev
	.type	_ZNSaISt13_Rb_tree_nodeISt4pairIKPKN3hsm12StateFactoryES4_EEED2Ev, @function
_ZNSaISt13_Rb_tree_nodeISt4pairIKPKN3hsm12StateFactoryES4_EEED2Ev:
.LFB3149:
	.cfi_startproc
	endbr64
	pushq	%rbp
	.cfi_def_cfa_offset 16
	.cfi_offset 6, -16
	movq	%rsp, %rbp
	.cfi_def_cfa_register 6
	subq	$16, %rsp
	movq	%rdi, -8(%rbp)
	movq	-8(%rbp), %rax
	movq	%rax, %rdi
	call	_ZN9__gnu_cxx13new_allocatorISt13_Rb_tree_nodeISt4pairIKPKN3hsm12StateFactoryES6_EEED2Ev
	nop
	leave
	.cfi_def_cfa 7, 8
	ret
	.cfi_endproc
.LFE3149:
	.size	_ZNSaISt13_Rb_tree_nodeISt4pairIKPKN3hsm12StateFactoryES4_EEED2Ev, .-_ZNSaISt13_Rb_tree_nodeISt4pairIKPKN3hsm12StateFactoryES4_EEED2Ev
	.weak	_ZNSaISt13_Rb_tree_nodeISt4pairIKPKN3hsm12StateFactoryES4_EEED1Ev
	.set	_ZNSaISt13_Rb_tree_nodeISt4pairIKPKN3hsm12StateFactoryES4_EEED1Ev,_ZNSaISt13_Rb_tree_nodeISt4pairIKPKN3hsm12StateFactoryES4_EEED2Ev
	.section	.text._ZNSt8_Rb_treeIPKN3hsm12StateFactoryESt4pairIKS3_S3_ESt10_Select1stIS6_ESt4lessIS3_ESaIS6_EED2Ev,"axG",@progbits,_ZNSt8_Rb_treeIPKN3hsm12StateFactoryESt4pairIKS3_S3_ESt10_Select1stIS6_ESt4lessIS3_ESaIS6_EED5Ev,comdat
	.align 2
	.weak	_ZNSt8_Rb_treeIPKN3hsm12StateFactoryESt4pairIKS3_S3_ESt10_Select1stIS6_ESt4lessIS3_ESaIS6_EED2Ev
	.type	_ZNSt8_Rb_treeIPKN3hsm12StateFactoryESt4pairIKS3_S3_ESt10_Select1stIS6_ESt4lessIS3_ESaIS6_EED2Ev, @function
_ZNSt8_Rb_treeIPKN3hsm12StateFactoryESt4pairIKS3_S3_ESt10_Select1stIS6_ESt4lessIS3_ESaIS6_EED2Ev:
.LFB3152:
	.cfi_startproc
	.cfi_personality 0x9b,DW.ref.__gxx_personality_v0
	.cfi_lsda 0x1b,.LLSDA3152
	endbr64
	pushq	%rbp
	.cfi_def_cfa_offset 16
	.cfi_offset 6, -16
	movq	%rsp, %rbp
	.cfi_def_cfa_register 6
	subq	$16, %rsp
	movq	%rdi, -8(%rbp)
	movq	-8(%rbp), %rax
	movq	%rax, %rdi
	call	_ZNSt8_Rb_treeIPKN3hsm12StateFactoryESt4pairIKS3_S3_ESt10_Select1stIS6_ESt4lessIS3_ESaIS6_EE8_M_beginEv
	movq	%rax, %rdx
	movq	-8(%rbp), %rax
	movq	%rdx, %rsi
	movq	%rax, %rdi
	call	_ZNSt8_Rb_treeIPKN3hsm12StateFactoryESt4pairIKS3_S3_ESt10_Select1stIS6_ESt4lessIS3_ESaIS6_EE8_M_eraseEPSt13_Rb_tree_nodeIS6_E
	movq	-8(%rbp), %rax
	movq	%rax, %rdi
	call	_ZNSt8_Rb_treeIPKN3hsm12StateFactoryESt4pairIKS3_S3_ESt10_Select1stIS6_ESt4lessIS3_ESaIS6_EE13_Rb_tree_implISA_Lb1EED1Ev
	nop
	leave
	.cfi_def_cfa 7, 8
	ret
	.cfi_endproc
.LFE3152:
	.section	.gcc_except_table
.LLSDA3152:
	.byte	0xff
	.byte	0xff
	.byte	0x1
	.uleb128 .LLSDACSE3152-.LLSDACSB3152
.LLSDACSB3152:
.LLSDACSE3152:
	.section	.text._ZNSt8_Rb_treeIPKN3hsm12StateFactoryESt4pairIKS3_S3_ESt10_Select1stIS6_ESt4lessIS3_ESaIS6_EED2Ev,"axG",@progbits,_ZNSt8_Rb_treeIPKN3hsm12StateFactoryESt4pairIKS3_S3_ESt10_Select1stIS6_ESt4lessIS3_ESaIS6_EED5Ev,comdat
	.size	_ZNSt8_Rb_treeIPKN3hsm12StateFactoryESt4pairIKS3_S3_ESt10_Select1stIS6_ESt4lessIS3_ESaIS6_EED2Ev, .-_ZNSt8_Rb_treeIPKN3hsm12StateFactoryESt4pairIKS3_S3_ESt10_Select1stIS6_ESt4lessIS3_ESaIS6_EED2Ev
	.weak	_ZNSt8_Rb_treeIPKN3hsm12StateFactoryESt4pairIKS3_S3_ESt10_Select1stIS6_ESt4lessIS3_ESaIS6_EED1Ev
	.set	_ZNSt8_Rb_treeIPKN3hsm12StateFactoryESt4pairIKS3_S3_ESt10_Select1stIS6_ESt4lessIS3_ESaIS6_EED1Ev,_ZNSt8_Rb_treeIPKN3hsm12StateFactoryESt4pairIKS3_S3_ESt10_Select1stIS6_ESt4lessIS3_ESaIS6_EED2Ev
	.section	.text._ZN9__gnu_cxxneIPPN3hsm5StateESt6vectorIS3_SaIS3_EEEEbRKNS_17__normal_iteratorIT_T0_EESD_,"axG",@progbits,_ZN9__gnu_cxxneIPPN3hsm5StateESt6vectorIS3_SaIS3_EEEEbRKNS_17__normal_iteratorIT_T0_EESD_,comdat
	.weak	_ZN9__gnu_cxxneIPPN3hsm5StateESt6vectorIS3_SaIS3_EEEEbRKNS_17__normal_iteratorIT_T0_EESD_
	.type	_ZN9__gnu_cxxneIPPN3hsm5StateESt6vectorIS3_SaIS3_EEEEbRKNS_17__normal_iteratorIT_T0_EESD_, @function
_ZN9__gnu_cxxneIPPN3hsm5StateESt6vectorIS3_SaIS3_EEEEbRKNS_17__normal_iteratorIT_T0_EESD_:
.LFB3156:
	.cfi_startproc
	endbr64
	pushq	%rbp
	.cfi_def_cfa_offset 16
	.cfi_offset 6, -16
	movq	%rsp, %rbp
	.cfi_def_cfa_register 6
	pushq	%rbx
	subq	$24, %rsp
	.cfi_offset 3, -24
	movq	%rdi, -24(%rbp)
	movq	%rsi, -32(%rbp)
	movq	-24(%rbp), %rax
	movq	%rax, %rdi
	call	_ZNK9__gnu_cxx17__normal_iteratorIPPN3hsm5StateESt6vectorIS3_SaIS3_EEE4baseEv
	movq	(%rax), %rbx
	movq	-32(%rbp), %rax
	movq	%rax, %rdi
	call	_ZNK9__gnu_cxx17__normal_iteratorIPPN3hsm5StateESt6vectorIS3_SaIS3_EEE4baseEv
	movq	(%rax), %rax
	cmpq	%rax, %rbx
	setne	%al
	movq	-8(%rbp), %rbx
	leave
	.cfi_def_cfa 7, 8
	ret
	.cfi_endproc
.LFE3156:
	.size	_ZN9__gnu_cxxneIPPN3hsm5StateESt6vectorIS3_SaIS3_EEEEbRKNS_17__normal_iteratorIT_T0_EESD_, .-_ZN9__gnu_cxxneIPPN3hsm5StateESt6vectorIS3_SaIS3_EEEEbRKNS_17__normal_iteratorIT_T0_EESD_
	.section	.text._ZN9__gnu_cxx17__normal_iteratorIPPN3hsm5StateESt6vectorIS3_SaIS3_EEEppEv,"axG",@progbits,_ZN9__gnu_cxx17__normal_iteratorIPPN3hsm5StateESt6vectorIS3_SaIS3_EEEppEv,comdat
	.align 2
	.weak	_ZN9__gnu_cxx17__normal_iteratorIPPN3hsm5StateESt6vectorIS3_SaIS3_EEEppEv
	.type	_ZN9__gnu_cxx17__normal_iteratorIPPN3hsm5StateESt6vectorIS3_SaIS3_EEEppEv, @function
_ZN9__gnu_cxx17__normal_iteratorIPPN3hsm5StateESt6vectorIS3_SaIS3_EEEppEv:
.LFB3157:
	.cfi_startproc
	endbr64
	pushq	%rbp
	.cfi_def_cfa_offset 16
	.cfi_offset 6, -16
	movq	%rsp, %rbp
	.cfi_def_cfa_register 6
	movq	%rdi, -8(%rbp)
	movq	-8(%rbp), %rax
	movq	(%rax), %rax
	leaq	8(%rax), %rdx
	movq	-8(%rbp), %rax
	movq	%rdx, (%rax)
	movq	-8(%rbp), %rax
	popq	%rbp
	.cfi_def_cfa 7, 8
	ret
	.cfi_endproc
.LFE3157:
	.size	_ZN9__gnu_cxx17__normal_iteratorIPPN3hsm5StateESt6vectorIS3_SaIS3_EEEppEv, .-_ZN9__gnu_cxx17__normal_iteratorIPPN3hsm5StateESt6vectorIS3_SaIS3_EEEppEv
	.section	.text._ZNK9__gnu_cxx17__normal_iteratorIPPN3hsm5StateESt6vectorIS3_SaIS3_EEEdeEv,"axG",@progbits,_ZNK9__gnu_cxx17__normal_iteratorIPPN3hsm5StateESt6vectorIS3_SaIS3_EEEdeEv,comdat
	.align 2
	.weak	_ZNK9__gnu_cxx17__normal_iteratorIPPN3hsm5StateESt6vectorIS3_SaIS3_EEEdeEv
	.type	_ZNK9__gnu_cxx17__normal_iteratorIPPN3hsm5StateESt6vectorIS3_SaIS3_EEEdeEv, @function
_ZNK9__gnu_cxx17__normal_iteratorIPPN3hsm5StateESt6vectorIS3_SaIS3_EEEdeEv:
.LFB3158:
	.cfi_startproc
	endbr64
	pushq	%rbp
	.cfi_def_cfa_offset 16
	.cfi_offset 6, -16
	movq	%rsp, %rbp
	.cfi_def_cfa_register 6
	movq	%rdi, -8(%rbp)
	movq	-8(%rbp), %rax
	movq	(%rax), %rax
	popq	%rbp
	.cfi_def_cfa 7, 8
	ret
	.cfi_endproc
.LFE3158:
	.size	_ZNK9__gnu_cxx17__normal_iteratorIPPN3hsm5StateESt6vectorIS3_SaIS3_EEEdeEv, .-_ZNK9__gnu_cxx17__normal_iteratorIPPN3hsm5StateESt6vectorIS3_SaIS3_EEEdeEv
	.section	.text._ZNKSt6vectorIPN3hsm5StateESaIS2_EE4sizeEv,"axG",@progbits,_ZNKSt6vectorIPN3hsm5StateESaIS2_EE4sizeEv,comdat
	.align 2
	.weak	_ZNKSt6vectorIPN3hsm5StateESaIS2_EE4sizeEv
	.type	_ZNKSt6vectorIPN3hsm5StateESaIS2_EE4sizeEv, @function
_ZNKSt6vectorIPN3hsm5StateESaIS2_EE4sizeEv:
.LFB3159:
	.cfi_startproc
	endbr64
	pushq	%rbp
	.cfi_def_cfa_offset 16
	.cfi_offset 6, -16
	movq	%rsp, %rbp
	.cfi_def_cfa_register 6
	movq	%rdi, -8(%rbp)
	movq	-8(%rbp), %rax
	movq	8(%rax), %rdx
	movq	-8(%rbp), %rax
	movq	(%rax), %rcx
	movq	%rdx, %rax
	subq	%rcx, %rax
	sarq	$3, %rax
	popq	%rbp
	.cfi_def_cfa 7, 8
	ret
	.cfi_endproc
.LFE3159:
	.size	_ZNKSt6vectorIPN3hsm5StateESaIS2_EE4sizeEv, .-_ZNKSt6vectorIPN3hsm5StateESaIS2_EE4sizeEv
	.section	.text._ZNSt6vectorIPN3hsm5StateESaIS2_EEixEm,"axG",@progbits,_ZNSt6vectorIPN3hsm5StateESaIS2_EEixEm,comdat
	.align 2
	.weak	_ZNSt6vectorIPN3hsm5StateESaIS2_EEixEm
	.type	_ZNSt6vectorIPN3hsm5StateESaIS2_EEixEm, @function
_ZNSt6vectorIPN3hsm5StateESaIS2_EEixEm:
.LFB3160:
	.cfi_startproc
	endbr64
	pushq	%rbp
	.cfi_def_cfa_offset 16
	.cfi_offset 6, -16
	movq	%rsp, %rbp
	.cfi_def_cfa_register 6
	movq	%rdi, -8(%rbp)
	movq	%rsi, -16(%rbp)
	movq	-8(%rbp), %rax
	movq	(%rax), %rdx
	movq	-16(%rbp), %rax
	salq	$3, %rax
	addq	%rdx, %rax
	popq	%rbp
	.cfi_def_cfa 7, 8
	ret
	.cfi_endproc
.LFE3160:
	.size	_ZNSt6vectorIPN3hsm5StateESaIS2_EEixEm, .-_ZNSt6vectorIPN3hsm5StateESaIS2_EEixEm
	.section	.text._ZNSt6vectorIPN3hsm5StateESaIS2_EE4backEv,"axG",@progbits,_ZNSt6vectorIPN3hsm5StateESaIS2_EE4backEv,comdat
	.align 2
	.weak	_ZNSt6vectorIPN3hsm5StateESaIS2_EE4backEv
	.type	_ZNSt6vectorIPN3hsm5StateESaIS2_EE4backEv, @function
_ZNSt6vectorIPN3hsm5StateESaIS2_EE4backEv:
.LFB3161:
	.cfi_startproc
	endbr64
	pushq	%rbp
	.cfi_def_cfa_offset 16
	.cfi_offset 6, -16
	movq	%rsp, %rbp
	.cfi_def_cfa_register 6
	subq	$48, %rsp
	movq	%rdi, -40(%rbp)
	movq	%fs:40, %rax
	movq	%rax, -8(%rbp)
	xorl	%eax, %eax
	movq	-40(%rbp), %rax
	movq	%rax, %rdi
	call	_ZNSt6vectorIPN3hsm5StateESaIS2_EE3endEv
	movq	%rax, -24(%rbp)
	leaq	-24(%rbp), %rax
	movl	$1, %esi
	movq	%rax, %rdi
	call	_ZNK9__gnu_cxx17__normal_iteratorIPPN3hsm5StateESt6vectorIS3_SaIS3_EEEmiEl
	movq	%rax, -16(%rbp)
	leaq	-16(%rbp), %rax
	movq	%rax, %rdi
	call	_ZNK9__gnu_cxx17__normal_iteratorIPPN3hsm5StateESt6vectorIS3_SaIS3_EEEdeEv
	movq	-8(%rbp), %rdx
	subq	%fs:40, %rdx
	je	.L229
	call	__stack_chk_fail@PLT
.L229:
	leave
	.cfi_def_cfa 7, 8
	ret
	.cfi_endproc
.LFE3161:
	.size	_ZNSt6vectorIPN3hsm5StateESaIS2_EE4backEv, .-_ZNSt6vectorIPN3hsm5StateESaIS2_EE4backEv
	.section	.text._ZNSt6vectorIPN3hsm5StateESaIS2_EE2atEm,"axG",@progbits,_ZNSt6vectorIPN3hsm5StateESaIS2_EE2atEm,comdat
	.align 2
	.weak	_ZNSt6vectorIPN3hsm5StateESaIS2_EE2atEm
	.type	_ZNSt6vectorIPN3hsm5StateESaIS2_EE2atEm, @function
_ZNSt6vectorIPN3hsm5StateESaIS2_EE2atEm:
.LFB3162:
	.cfi_startproc
	endbr64
	pushq	%rbp
	.cfi_def_cfa_offset 16
	.cfi_offset 6, -16
	movq	%rsp, %rbp
	.cfi_def_cfa_register 6
	subq	$16, %rsp
	movq	%rdi, -8(%rbp)
	movq	%rsi, -16(%rbp)
	movq	-16(%rbp), %rdx
	movq	-8(%rbp), %rax
	movq	%rdx, %rsi
	movq	%rax, %rdi
	call	_ZNKSt6vectorIPN3hsm5StateESaIS2_EE14_M_range_checkEm
	movq	-16(%rbp), %rdx
	movq	-8(%rbp), %rax
	movq	%rdx, %rsi
	movq	%rax, %rdi
	call	_ZNSt6vectorIPN3hsm5StateESaIS2_EEixEm
	leave
	.cfi_def_cfa 7, 8
	ret
	.cfi_endproc
.LFE3162:
	.size	_ZNSt6vectorIPN3hsm5StateESaIS2_EE2atEm, .-_ZNSt6vectorIPN3hsm5StateESaIS2_EE2atEm
	.section	.text._ZNSt6vectorIPN3hsm5StateESaIS2_EE9push_backERKS2_,"axG",@progbits,_ZNSt6vectorIPN3hsm5StateESaIS2_EE9push_backERKS2_,comdat
	.align 2
	.weak	_ZNSt6vectorIPN3hsm5StateESaIS2_EE9push_backERKS2_
	.type	_ZNSt6vectorIPN3hsm5StateESaIS2_EE9push_backERKS2_, @function
_ZNSt6vectorIPN3hsm5StateESaIS2_EE9push_backERKS2_:
.LFB3163:
	.cfi_startproc
	endbr64
	pushq	%rbp
	.cfi_def_cfa_offset 16
	.cfi_offset 6, -16
	movq	%rsp, %rbp
	.cfi_def_cfa_register 6
	subq	$16, %rsp
	movq	%rdi, -8(%rbp)
	movq	%rsi, -16(%rbp)
	movq	-8(%rbp), %rax
	movq	8(%rax), %rdx
	movq	-8(%rbp), %rax
	movq	16(%rax), %rax
	cmpq	%rax, %rdx
	je	.L233
	movq	-8(%rbp), %rax
	movq	8(%rax), %rcx
	movq	-8(%rbp), %rax
	movq	-16(%rbp), %rdx
	movq	%rcx, %rsi
	movq	%rax, %rdi
	call	_ZNSt16allocator_traitsISaIPN3hsm5StateEEE9constructIS2_JRKS2_EEEvRS3_PT_DpOT0_
	movq	-8(%rbp), %rax
	movq	8(%rax), %rax
	leaq	8(%rax), %rdx
	movq	-8(%rbp), %rax
	movq	%rdx, 8(%rax)
	jmp	.L235
.L233:
	movq	-8(%rbp), %rax
	movq	%rax, %rdi
	call	_ZNSt6vectorIPN3hsm5StateESaIS2_EE3endEv
	movq	%rax, %rcx
	movq	-16(%rbp), %rdx
	movq	-8(%rbp), %rax
	movq	%rcx, %rsi
	movq	%rax, %rdi
	call	_ZNSt6vectorIPN3hsm5StateESaIS2_EE17_M_realloc_insertIJRKS2_EEEvN9__gnu_cxx17__normal_iteratorIPS2_S4_EEDpOT_
.L235:
	nop
	leave
	.cfi_def_cfa 7, 8
	ret
	.cfi_endproc
.LFE3163:
	.size	_ZNSt6vectorIPN3hsm5StateESaIS2_EE9push_backERKS2_, .-_ZNSt6vectorIPN3hsm5StateESaIS2_EE9push_backERKS2_
	.section	.text._ZNSt6vectorIPN3hsm5StateESaIS2_EE8pop_backEv,"axG",@progbits,_ZNSt6vectorIPN3hsm5StateESaIS2_EE8pop_backEv,comdat
	.align 2
	.weak	_ZNSt6vectorIPN3hsm5StateESaIS2_EE8pop_backEv
	.type	_ZNSt6vectorIPN3hsm5StateESaIS2_EE8pop_backEv, @function
_ZNSt6vectorIPN3hsm5StateESaIS2_EE8pop_backEv:
.LFB3165:
	.cfi_startproc
	endbr64
	pushq	%rbp
	.cfi_def_cfa_offset 16
	.cfi_offset 6, -16
	movq	%rsp, %rbp
	.cfi_def_cfa_register 6
	subq	$16, %rsp
	movq	%rdi, -8(%rbp)
	movq	-8(%rbp), %rax
	movq	8(%rax), %rax
	leaq	-8(%rax), %rdx
	movq	-8(%rbp), %rax
	movq	%rdx, 8(%rax)
	movq	-8(%rbp), %rax
	movq	8(%rax), %rdx
	movq	-8(%rbp), %rax
	movq	%rdx, %rsi
	movq	%rax, %rdi
	call	_ZNSt16allocator_traitsISaIPN3hsm5StateEEE7destroyIS2_EEvRS3_PT_
	nop
	leave
	.cfi_def_cfa 7, 8
	ret
	.cfi_endproc
.LFE3165:
	.size	_ZNSt6vectorIPN3hsm5StateESaIS2_EE8pop_backEv, .-_ZNSt6vectorIPN3hsm5StateESaIS2_EE8pop_backEv
	.section	.text._ZN3hsm17SiblingTransitionIN8MyStates6SecondEEENS_10TransitionENSt7__cxx1112basic_stringIcSt11char_traitsIcESaIcEEE,"axG",@progbits,_ZN3hsm17SiblingTransitionIN8MyStates6SecondEEENS_10TransitionENSt7__cxx1112basic_stringIcSt11char_traitsIcESaIcEEE,comdat
	.weak	_ZN3hsm17SiblingTransitionIN8MyStates6SecondEEENS_10TransitionENSt7__cxx1112basic_stringIcSt11char_traitsIcESaIcEEE
	.type	_ZN3hsm17SiblingTransitionIN8MyStates6SecondEEENS_10TransitionENSt7__cxx1112basic_stringIcSt11char_traitsIcESaIcEEE, @function
_ZN3hsm17SiblingTransitionIN8MyStates6SecondEEENS_10TransitionENSt7__cxx1112basic_stringIcSt11char_traitsIcESaIcEEE:
.LFB3166:
	.cfi_startproc
	.cfi_personality 0x9b,DW.ref.__gxx_personality_v0
	.cfi_lsda 0x1b,.LLSDA3166
	endbr64
	pushq	%rbp
	.cfi_def_cfa_offset 16
	.cfi_offset 6, -16
	movq	%rsp, %rbp
	.cfi_def_cfa_register 6
	pushq	%rbx
	subq	$72, %rsp
	.cfi_offset 3, -24
	movq	%rdi, -72(%rbp)
	movq	%rsi, -80(%rbp)
	movq	%fs:40, %rax
	movq	%rax, -24(%rbp)
	xorl	%eax, %eax
	movq	-80(%rbp), %rdx
	leaq	-64(%rbp), %rax
	movq	%rdx, %rsi
	movq	%rax, %rdi
.LEHB22:
	call	_ZNSt7__cxx1112basic_stringIcSt11char_traitsIcESaIcEEC1ERKS4_@PLT
.LEHE22:
.LEHB23:
	call	_ZN3hsm15GetStateFactoryIN8MyStates6SecondEEERKNS_12StateFactoryEv
	movq	%rax, %rsi
	leaq	-64(%rbp), %rdx
	movq	-72(%rbp), %rax
	movq	%rdx, %rcx
	movq	%rsi, %rdx
	movl	$0, %esi
	movq	%rax, %rdi
	call	_ZN3hsm10TransitionC1ENS0_4TypeERKNS_12StateFactoryENSt7__cxx1112basic_stringIcSt11char_traitsIcESaIcEEE
.LEHE23:
	leaq	-64(%rbp), %rax
	movq	%rax, %rdi
	call	_ZNSt7__cxx1112basic_stringIcSt11char_traitsIcESaIcEED1Ev@PLT
	movq	-24(%rbp), %rax
	subq	%fs:40, %rax
	je	.L240
	jmp	.L242
.L241:
	endbr64
	movq	%rax, %rbx
	leaq	-64(%rbp), %rax
	movq	%rax, %rdi
	call	_ZNSt7__cxx1112basic_stringIcSt11char_traitsIcESaIcEED1Ev@PLT
	movq	%rbx, %rax
	movq	%rax, %rdi
.LEHB24:
	call	_Unwind_Resume@PLT
.LEHE24:
.L242:
	call	__stack_chk_fail@PLT
.L240:
	movq	-72(%rbp), %rax
	movq	-8(%rbp), %rbx
	leave
	.cfi_def_cfa 7, 8
	ret
	.cfi_endproc
.LFE3166:
	.section	.gcc_except_table
.LLSDA3166:
	.byte	0xff
	.byte	0xff
	.byte	0x1
	.uleb128 .LLSDACSE3166-.LLSDACSB3166
.LLSDACSB3166:
	.uleb128 .LEHB22-.LFB3166
	.uleb128 .LEHE22-.LEHB22
	.uleb128 0
	.uleb128 0
	.uleb128 .LEHB23-.LFB3166
	.uleb128 .LEHE23-.LEHB23
	.uleb128 .L241-.LFB3166
	.uleb128 0
	.uleb128 .LEHB24-.LFB3166
	.uleb128 .LEHE24-.LEHB24
	.uleb128 0
	.uleb128 0
.LLSDACSE3166:
	.section	.text._ZN3hsm17SiblingTransitionIN8MyStates6SecondEEENS_10TransitionENSt7__cxx1112basic_stringIcSt11char_traitsIcESaIcEEE,"axG",@progbits,_ZN3hsm17SiblingTransitionIN8MyStates6SecondEEENS_10TransitionENSt7__cxx1112basic_stringIcSt11char_traitsIcESaIcEEE,comdat
	.size	_ZN3hsm17SiblingTransitionIN8MyStates6SecondEEENS_10TransitionENSt7__cxx1112basic_stringIcSt11char_traitsIcESaIcEEE, .-_ZN3hsm17SiblingTransitionIN8MyStates6SecondEEENS_10TransitionENSt7__cxx1112basic_stringIcSt11char_traitsIcESaIcEEE
	.section	.text._ZN3hsm17SiblingTransitionIN8MyStates5ThirdEEENS_10TransitionENSt7__cxx1112basic_stringIcSt11char_traitsIcESaIcEEE,"axG",@progbits,_ZN3hsm17SiblingTransitionIN8MyStates5ThirdEEENS_10TransitionENSt7__cxx1112basic_stringIcSt11char_traitsIcESaIcEEE,comdat
	.weak	_ZN3hsm17SiblingTransitionIN8MyStates5ThirdEEENS_10TransitionENSt7__cxx1112basic_stringIcSt11char_traitsIcESaIcEEE
	.type	_ZN3hsm17SiblingTransitionIN8MyStates5ThirdEEENS_10TransitionENSt7__cxx1112basic_stringIcSt11char_traitsIcESaIcEEE, @function
_ZN3hsm17SiblingTransitionIN8MyStates5ThirdEEENS_10TransitionENSt7__cxx1112basic_stringIcSt11char_traitsIcESaIcEEE:
.LFB3167:
	.cfi_startproc
	.cfi_personality 0x9b,DW.ref.__gxx_personality_v0
	.cfi_lsda 0x1b,.LLSDA3167
	endbr64
	pushq	%rbp
	.cfi_def_cfa_offset 16
	.cfi_offset 6, -16
	movq	%rsp, %rbp
	.cfi_def_cfa_register 6
	pushq	%rbx
	subq	$72, %rsp
	.cfi_offset 3, -24
	movq	%rdi, -72(%rbp)
	movq	%rsi, -80(%rbp)
	movq	%fs:40, %rax
	movq	%rax, -24(%rbp)
	xorl	%eax, %eax
	movq	-80(%rbp), %rdx
	leaq	-64(%rbp), %rax
	movq	%rdx, %rsi
	movq	%rax, %rdi
.LEHB25:
	call	_ZNSt7__cxx1112basic_stringIcSt11char_traitsIcESaIcEEC1ERKS4_@PLT
.LEHE25:
.LEHB26:
	call	_ZN3hsm15GetStateFactoryIN8MyStates5ThirdEEERKNS_12StateFactoryEv
	movq	%rax, %rsi
	leaq	-64(%rbp), %rdx
	movq	-72(%rbp), %rax
	movq	%rdx, %rcx
	movq	%rsi, %rdx
	movl	$0, %esi
	movq	%rax, %rdi
	call	_ZN3hsm10TransitionC1ENS0_4TypeERKNS_12StateFactoryENSt7__cxx1112basic_stringIcSt11char_traitsIcESaIcEEE
.LEHE26:
	leaq	-64(%rbp), %rax
	movq	%rax, %rdi
	call	_ZNSt7__cxx1112basic_stringIcSt11char_traitsIcESaIcEED1Ev@PLT
	movq	-24(%rbp), %rax
	subq	%fs:40, %rax
	je	.L246
	jmp	.L248
.L247:
	endbr64
	movq	%rax, %rbx
	leaq	-64(%rbp), %rax
	movq	%rax, %rdi
	call	_ZNSt7__cxx1112basic_stringIcSt11char_traitsIcESaIcEED1Ev@PLT
	movq	%rbx, %rax
	movq	%rax, %rdi
.LEHB27:
	call	_Unwind_Resume@PLT
.LEHE27:
.L248:
	call	__stack_chk_fail@PLT
.L246:
	movq	-72(%rbp), %rax
	movq	-8(%rbp), %rbx
	leave
	.cfi_def_cfa 7, 8
	ret
	.cfi_endproc
.LFE3167:
	.section	.gcc_except_table
.LLSDA3167:
	.byte	0xff
	.byte	0xff
	.byte	0x1
	.uleb128 .LLSDACSE3167-.LLSDACSB3167
.LLSDACSB3167:
	.uleb128 .LEHB25-.LFB3167
	.uleb128 .LEHE25-.LEHB25
	.uleb128 0
	.uleb128 0
	.uleb128 .LEHB26-.LFB3167
	.uleb128 .LEHE26-.LEHB26
	.uleb128 .L247-.LFB3167
	.uleb128 0
	.uleb128 .LEHB27-.LFB3167
	.uleb128 .LEHE27-.LEHB27
	.uleb128 0
	.uleb128 0
.LLSDACSE3167:
	.section	.text._ZN3hsm17SiblingTransitionIN8MyStates5ThirdEEENS_10TransitionENSt7__cxx1112basic_stringIcSt11char_traitsIcESaIcEEE,"axG",@progbits,_ZN3hsm17SiblingTransitionIN8MyStates5ThirdEEENS_10TransitionENSt7__cxx1112basic_stringIcSt11char_traitsIcESaIcEEE,comdat
	.size	_ZN3hsm17SiblingTransitionIN8MyStates5ThirdEEENS_10TransitionENSt7__cxx1112basic_stringIcSt11char_traitsIcESaIcEEE, .-_ZN3hsm17SiblingTransitionIN8MyStates5ThirdEEENS_10TransitionENSt7__cxx1112basic_stringIcSt11char_traitsIcESaIcEEE
	.section	.rodata
	.align 8
.LC31:
	.string	"void hsm::StateMachine::Initialize(hsm::Owner*) [with InitialStateType = MyStates::First; hsm::Owner = void]"
.LC32:
	.string	"mInitialTransition.IsNo()"
.LC33:
	.string	"Initialize"
	.section	.text._ZN3hsm12StateMachine10InitializeIN8MyStates5FirstEEEvPv,"axG",@progbits,_ZN3hsm12StateMachine10InitializeIN8MyStates5FirstEEEvPv,comdat
	.align 2
	.weak	_ZN3hsm12StateMachine10InitializeIN8MyStates5FirstEEEvPv
	.type	_ZN3hsm12StateMachine10InitializeIN8MyStates5FirstEEEvPv, @function
_ZN3hsm12StateMachine10InitializeIN8MyStates5FirstEEEvPv:
.LFB3168:
	.cfi_startproc
	.cfi_personality 0x9b,DW.ref.__gxx_personality_v0
	.cfi_lsda 0x1b,.LLSDA3168
	endbr64
	pushq	%rbp
	.cfi_def_cfa_offset 16
	.cfi_offset 6, -16
	movq	%rsp, %rbp
	.cfi_def_cfa_register 6
	pushq	%rbx
	subq	$136, %rsp
	.cfi_offset 3, -24
	movq	%rdi, -136(%rbp)
	movq	%rsi, -144(%rbp)
	movq	%fs:40, %rax
	movq	%rax, -24(%rbp)
	xorl	%eax, %eax
	movq	-136(%rbp), %rax
	addq	$8, %rax
	movq	%rax, %rdi
	call	_ZNK3hsm10Transition4IsNoEv
	testb	%al, %al
	jne	.L250
	leaq	.LC31(%rip), %rax
	movq	%rax, %rcx
	movl	$741, %edx
	leaq	.LC1(%rip), %rax
	movq	%rax, %rsi
	leaq	.LC32(%rip), %rax
	movq	%rax, %rdi
	call	__assert_fail@PLT
.L250:
	leaq	-113(%rbp), %rax
	movq	%rax, %rdi
	call	_ZNSaIcEC1Ev@PLT
	leaq	-113(%rbp), %rdx
	leaq	-112(%rbp), %rax
	leaq	.LC33(%rip), %rcx
	movq	%rcx, %rsi
	movq	%rax, %rdi
.LEHB28:
	call	_ZNSt7__cxx1112basic_stringIcSt11char_traitsIcESaIcEEC1EPKcRKS3_@PLT
.LEHE28:
.LEHB29:
	call	_ZN3hsm15GetStateFactoryIN8MyStates5FirstEEERKNS_12StateFactoryEv
	movq	%rax, %rcx
	leaq	-80(%rbp), %rax
	leaq	-112(%rbp), %rdx
	movq	%rcx, %rsi
	movq	%rax, %rdi
	call	_ZN3hsm17SiblingTransitionERKNS_12StateFactoryENSt7__cxx1112basic_stringIcSt11char_traitsIcESaIcEEE
.LEHE29:
	movq	-136(%rbp), %rax
	leaq	8(%rax), %rdx
	leaq	-80(%rbp), %rax
	movq	%rax, %rsi
	movq	%rdx, %rdi
	call	_ZN3hsm10TransitionaSEOS0_
	leaq	-80(%rbp), %rax
	movq	%rax, %rdi
	call	_ZN3hsm10TransitionD1Ev
	leaq	-112(%rbp), %rax
	movq	%rax, %rdi
	call	_ZNSt7__cxx1112basic_stringIcSt11char_traitsIcESaIcEED1Ev@PLT
	leaq	-113(%rbp), %rax
	movq	%rax, %rdi
	call	_ZNSaIcED1Ev@PLT
	movq	-136(%rbp), %rax
	movq	-144(%rbp), %rdx
	movq	%rdx, (%rax)
	nop
	movq	-24(%rbp), %rax
	subq	%fs:40, %rax
	je	.L253
	jmp	.L256
.L255:
	endbr64
	movq	%rax, %rbx
	leaq	-112(%rbp), %rax
	movq	%rax, %rdi
	call	_ZNSt7__cxx1112basic_stringIcSt11char_traitsIcESaIcEED1Ev@PLT
	jmp	.L252
.L254:
	endbr64
	movq	%rax, %rbx
.L252:
	leaq	-113(%rbp), %rax
	movq	%rax, %rdi
	call	_ZNSaIcED1Ev@PLT
	movq	%rbx, %rax
	movq	%rax, %rdi
.LEHB30:
	call	_Unwind_Resume@PLT
.LEHE30:
.L256:
	call	__stack_chk_fail@PLT
.L253:
	movq	-8(%rbp), %rbx
	leave
	.cfi_def_cfa 7, 8
	ret
	.cfi_endproc
.LFE3168:
	.section	.gcc_except_table
.LLSDA3168:
	.byte	0xff
	.byte	0xff
	.byte	0x1
	.uleb128 .LLSDACSE3168-.LLSDACSB3168
.LLSDACSB3168:
	.uleb128 .LEHB28-.LFB3168
	.uleb128 .LEHE28-.LEHB28
	.uleb128 .L254-.LFB3168
	.uleb128 0
	.uleb128 .LEHB29-.LFB3168
	.uleb128 .LEHE29-.LEHB29
	.uleb128 .L255-.LFB3168
	.uleb128 0
	.uleb128 .LEHB30-.LFB3168
	.uleb128 .LEHE30-.LEHB30
	.uleb128 0
	.uleb128 0
.LLSDACSE3168:
	.section	.text._ZN3hsm12StateMachine10InitializeIN8MyStates5FirstEEEvPv,"axG",@progbits,_ZN3hsm12StateMachine10InitializeIN8MyStates5FirstEEEvPv,comdat
	.size	_ZN3hsm12StateMachine10InitializeIN8MyStates5FirstEEEvPv, .-_ZN3hsm12StateMachine10InitializeIN8MyStates5FirstEEEvPv
	.section	.text._ZN9__gnu_cxx13new_allocatorIPN3hsm18StateValueResetterEEC2Ev,"axG",@progbits,_ZN9__gnu_cxx13new_allocatorIPN3hsm18StateValueResetterEEC5Ev,comdat
	.align 2
	.weak	_ZN9__gnu_cxx13new_allocatorIPN3hsm18StateValueResetterEEC2Ev
	.type	_ZN9__gnu_cxx13new_allocatorIPN3hsm18StateValueResetterEEC2Ev, @function
_ZN9__gnu_cxx13new_allocatorIPN3hsm18StateValueResetterEEC2Ev:
.LFB3276:
	.cfi_startproc
	endbr64
	pushq	%rbp
	.cfi_def_cfa_offset 16
	.cfi_offset 6, -16
	movq	%rsp, %rbp
	.cfi_def_cfa_register 6
	movq	%rdi, -8(%rbp)
	nop
	popq	%rbp
	.cfi_def_cfa 7, 8
	ret
	.cfi_endproc
.LFE3276:
	.size	_ZN9__gnu_cxx13new_allocatorIPN3hsm18StateValueResetterEEC2Ev, .-_ZN9__gnu_cxx13new_allocatorIPN3hsm18StateValueResetterEEC2Ev
	.weak	_ZN9__gnu_cxx13new_allocatorIPN3hsm18StateValueResetterEEC1Ev
	.set	_ZN9__gnu_cxx13new_allocatorIPN3hsm18StateValueResetterEEC1Ev,_ZN9__gnu_cxx13new_allocatorIPN3hsm18StateValueResetterEEC2Ev
	.section	.text._ZN9__gnu_cxx13new_allocatorIPN3hsm18StateValueResetterEED2Ev,"axG",@progbits,_ZN9__gnu_cxx13new_allocatorIPN3hsm18StateValueResetterEED5Ev,comdat
	.align 2
	.weak	_ZN9__gnu_cxx13new_allocatorIPN3hsm18StateValueResetterEED2Ev
	.type	_ZN9__gnu_cxx13new_allocatorIPN3hsm18StateValueResetterEED2Ev, @function
_ZN9__gnu_cxx13new_allocatorIPN3hsm18StateValueResetterEED2Ev:
.LFB3279:
	.cfi_startproc
	endbr64
	pushq	%rbp
	.cfi_def_cfa_offset 16
	.cfi_offset 6, -16
	movq	%rsp, %rbp
	.cfi_def_cfa_register 6
	movq	%rdi, -8(%rbp)
	nop
	popq	%rbp
	.cfi_def_cfa 7, 8
	ret
	.cfi_endproc
.LFE3279:
	.size	_ZN9__gnu_cxx13new_allocatorIPN3hsm18StateValueResetterEED2Ev, .-_ZN9__gnu_cxx13new_allocatorIPN3hsm18StateValueResetterEED2Ev
	.weak	_ZN9__gnu_cxx13new_allocatorIPN3hsm18StateValueResetterEED1Ev
	.set	_ZN9__gnu_cxx13new_allocatorIPN3hsm18StateValueResetterEED1Ev,_ZN9__gnu_cxx13new_allocatorIPN3hsm18StateValueResetterEED2Ev
	.section	.rodata
	.align 8
.LC34:
	.string	"cannot create std::vector larger than max_size()"
	.section	.text._ZNSt6vectorIPN3hsm18StateValueResetterESaIS2_EE17_S_check_init_lenEmRKS3_,"axG",@progbits,_ZNSt6vectorIPN3hsm18StateValueResetterESaIS2_EE17_S_check_init_lenEmRKS3_,comdat
	.weak	_ZNSt6vectorIPN3hsm18StateValueResetterESaIS2_EE17_S_check_init_lenEmRKS3_
	.type	_ZNSt6vectorIPN3hsm18StateValueResetterESaIS2_EE17_S_check_init_lenEmRKS3_, @function
_ZNSt6vectorIPN3hsm18StateValueResetterESaIS2_EE17_S_check_init_lenEmRKS3_:
.LFB3281:
	.cfi_startproc
	endbr64
	pushq	%rbp
	.cfi_def_cfa_offset 16
	.cfi_offset 6, -16
	movq	%rsp, %rbp
	.cfi_def_cfa_register 6
	pushq	%rbx
	subq	$40, %rsp
	.cfi_offset 3, -24
	movq	%rdi, -40(%rbp)
	movq	%rsi, -48(%rbp)
	movq	%fs:40, %rax
	movq	%rax, -24(%rbp)
	xorl	%eax, %eax
	movq	-48(%rbp), %rdx
	leaq	-25(%rbp), %rax
	movq	%rdx, %rsi
	movq	%rax, %rdi
	call	_ZNSaIPN3hsm18StateValueResetterEEC1ERKS2_
	leaq	-25(%rbp), %rax
	movq	%rax, %rdi
	call	_ZNSt6vectorIPN3hsm18StateValueResetterESaIS2_EE11_S_max_sizeERKS3_
	cmpq	%rax, -40(%rbp)
	seta	%bl
	leaq	-25(%rbp), %rax
	movq	%rax, %rdi
	call	_ZNSaIPN3hsm18StateValueResetterEED1Ev
	testb	%bl, %bl
	je	.L260
	leaq	.LC34(%rip), %rax
	movq	%rax, %rdi
	call	_ZSt20__throw_length_errorPKc@PLT
.L260:
	movq	-40(%rbp), %rax
	movq	-24(%rbp), %rdx
	subq	%fs:40, %rdx
	je	.L262
	call	__stack_chk_fail@PLT
.L262:
	movq	-8(%rbp), %rbx
	leave
	.cfi_def_cfa 7, 8
	ret
	.cfi_endproc
.LFE3281:
	.size	_ZNSt6vectorIPN3hsm18StateValueResetterESaIS2_EE17_S_check_init_lenEmRKS3_, .-_ZNSt6vectorIPN3hsm18StateValueResetterESaIS2_EE17_S_check_init_lenEmRKS3_
	.section	.text._ZNSt12_Vector_baseIPN3hsm18StateValueResetterESaIS2_EE12_Vector_implD2Ev,"axG",@progbits,_ZNSt12_Vector_baseIPN3hsm18StateValueResetterESaIS2_EE12_Vector_implD5Ev,comdat
	.align 2
	.weak	_ZNSt12_Vector_baseIPN3hsm18StateValueResetterESaIS2_EE12_Vector_implD2Ev
	.type	_ZNSt12_Vector_baseIPN3hsm18StateValueResetterESaIS2_EE12_Vector_implD2Ev, @function
_ZNSt12_Vector_baseIPN3hsm18StateValueResetterESaIS2_EE12_Vector_implD2Ev:
.LFB3284:
	.cfi_startproc
	endbr64
	pushq	%rbp
	.cfi_def_cfa_offset 16
	.cfi_offset 6, -16
	movq	%rsp, %rbp
	.cfi_def_cfa_register 6
	subq	$16, %rsp
	movq	%rdi, -8(%rbp)
	movq	-8(%rbp), %rax
	movq	%rax, %rdi
	call	_ZNSaIPN3hsm18StateValueResetterEED2Ev
	nop
	leave
	.cfi_def_cfa 7, 8
	ret
	.cfi_endproc
.LFE3284:
	.size	_ZNSt12_Vector_baseIPN3hsm18StateValueResetterESaIS2_EE12_Vector_implD2Ev, .-_ZNSt12_Vector_baseIPN3hsm18StateValueResetterESaIS2_EE12_Vector_implD2Ev
	.weak	_ZNSt12_Vector_baseIPN3hsm18StateValueResetterESaIS2_EE12_Vector_implD1Ev
	.set	_ZNSt12_Vector_baseIPN3hsm18StateValueResetterESaIS2_EE12_Vector_implD1Ev,_ZNSt12_Vector_baseIPN3hsm18StateValueResetterESaIS2_EE12_Vector_implD2Ev
	.section	.text._ZNSt12_Vector_baseIPN3hsm18StateValueResetterESaIS2_EEC2EmRKS3_,"axG",@progbits,_ZNSt12_Vector_baseIPN3hsm18StateValueResetterESaIS2_EEC5EmRKS3_,comdat
	.align 2
	.weak	_ZNSt12_Vector_baseIPN3hsm18StateValueResetterESaIS2_EEC2EmRKS3_
	.type	_ZNSt12_Vector_baseIPN3hsm18StateValueResetterESaIS2_EEC2EmRKS3_, @function
_ZNSt12_Vector_baseIPN3hsm18StateValueResetterESaIS2_EEC2EmRKS3_:
.LFB3286:
	.cfi_startproc
	.cfi_personality 0x9b,DW.ref.__gxx_personality_v0
	.cfi_lsda 0x1b,.LLSDA3286
	endbr64
	pushq	%rbp
	.cfi_def_cfa_offset 16
	.cfi_offset 6, -16
	movq	%rsp, %rbp
	.cfi_def_cfa_register 6
	pushq	%rbx
	subq	$40, %rsp
	.cfi_offset 3, -24
	movq	%rdi, -24(%rbp)
	movq	%rsi, -32(%rbp)
	movq	%rdx, -40(%rbp)
	movq	-24(%rbp), %rax
	movq	-40(%rbp), %rdx
	movq	%rdx, %rsi
	movq	%rax, %rdi
	call	_ZNSt12_Vector_baseIPN3hsm18StateValueResetterESaIS2_EE12_Vector_implC1ERKS3_
	movq	-32(%rbp), %rdx
	movq	-24(%rbp), %rax
	movq	%rdx, %rsi
	movq	%rax, %rdi
.LEHB31:
	call	_ZNSt12_Vector_baseIPN3hsm18StateValueResetterESaIS2_EE17_M_create_storageEm
.LEHE31:
	jmp	.L267
.L266:
	endbr64
	movq	%rax, %rbx
	movq	-24(%rbp), %rax
	movq	%rax, %rdi
	call	_ZNSt12_Vector_baseIPN3hsm18StateValueResetterESaIS2_EE12_Vector_implD1Ev
	movq	%rbx, %rax
	movq	%rax, %rdi
.LEHB32:
	call	_Unwind_Resume@PLT
.LEHE32:
.L267:
	movq	-8(%rbp), %rbx
	leave
	.cfi_def_cfa 7, 8
	ret
	.cfi_endproc
.LFE3286:
	.section	.gcc_except_table
.LLSDA3286:
	.byte	0xff
	.byte	0xff
	.byte	0x1
	.uleb128 .LLSDACSE3286-.LLSDACSB3286
.LLSDACSB3286:
	.uleb128 .LEHB31-.LFB3286
	.uleb128 .LEHE31-.LEHB31
	.uleb128 .L266-.LFB3286
	.uleb128 0
	.uleb128 .LEHB32-.LFB3286
	.uleb128 .LEHE32-.LEHB32
	.uleb128 0
	.uleb128 0
.LLSDACSE3286:
	.section	.text._ZNSt12_Vector_baseIPN3hsm18StateValueResetterESaIS2_EEC2EmRKS3_,"axG",@progbits,_ZNSt12_Vector_baseIPN3hsm18StateValueResetterESaIS2_EEC5EmRKS3_,comdat
	.size	_ZNSt12_Vector_baseIPN3hsm18StateValueResetterESaIS2_EEC2EmRKS3_, .-_ZNSt12_Vector_baseIPN3hsm18StateValueResetterESaIS2_EEC2EmRKS3_
	.weak	_ZNSt12_Vector_baseIPN3hsm18StateValueResetterESaIS2_EEC1EmRKS3_
	.set	_ZNSt12_Vector_baseIPN3hsm18StateValueResetterESaIS2_EEC1EmRKS3_,_ZNSt12_Vector_baseIPN3hsm18StateValueResetterESaIS2_EEC2EmRKS3_
	.section	.text._ZNSt12_Vector_baseIPN3hsm18StateValueResetterESaIS2_EED2Ev,"axG",@progbits,_ZNSt12_Vector_baseIPN3hsm18StateValueResetterESaIS2_EED5Ev,comdat
	.align 2
	.weak	_ZNSt12_Vector_baseIPN3hsm18StateValueResetterESaIS2_EED2Ev
	.type	_ZNSt12_Vector_baseIPN3hsm18StateValueResetterESaIS2_EED2Ev, @function
_ZNSt12_Vector_baseIPN3hsm18StateValueResetterESaIS2_EED2Ev:
.LFB3289:
	.cfi_startproc
	.cfi_personality 0x9b,DW.ref.__gxx_personality_v0
	.cfi_lsda 0x1b,.LLSDA3289
	endbr64
	pushq	%rbp
	.cfi_def_cfa_offset 16
	.cfi_offset 6, -16
	movq	%rsp, %rbp
	.cfi_def_cfa_register 6
	subq	$16, %rsp
	movq	%rdi, -8(%rbp)
	movq	-8(%rbp), %rax
	movq	16(%rax), %rdx
	movq	-8(%rbp), %rax
	movq	(%rax), %rcx
	movq	%rdx, %rax
	subq	%rcx, %rax
	sarq	$3, %rax
	movq	%rax, %rdx
	movq	-8(%rbp), %rax
	movq	(%rax), %rcx
	movq	-8(%rbp), %rax
	movq	%rcx, %rsi
	movq	%rax, %rdi
	call	_ZNSt12_Vector_baseIPN3hsm18StateValueResetterESaIS2_EE13_M_deallocateEPS2_m
	movq	-8(%rbp), %rax
	movq	%rax, %rdi
	call	_ZNSt12_Vector_baseIPN3hsm18StateValueResetterESaIS2_EE12_Vector_implD1Ev
	nop
	leave
	.cfi_def_cfa 7, 8
	ret
	.cfi_endproc
.LFE3289:
	.section	.gcc_except_table
.LLSDA3289:
	.byte	0xff
	.byte	0xff
	.byte	0x1
	.uleb128 .LLSDACSE3289-.LLSDACSB3289
.LLSDACSB3289:
.LLSDACSE3289:
	.section	.text._ZNSt12_Vector_baseIPN3hsm18StateValueResetterESaIS2_EED2Ev,"axG",@progbits,_ZNSt12_Vector_baseIPN3hsm18StateValueResetterESaIS2_EED5Ev,comdat
	.size	_ZNSt12_Vector_baseIPN3hsm18StateValueResetterESaIS2_EED2Ev, .-_ZNSt12_Vector_baseIPN3hsm18StateValueResetterESaIS2_EED2Ev
	.weak	_ZNSt12_Vector_baseIPN3hsm18StateValueResetterESaIS2_EED1Ev
	.set	_ZNSt12_Vector_baseIPN3hsm18StateValueResetterESaIS2_EED1Ev,_ZNSt12_Vector_baseIPN3hsm18StateValueResetterESaIS2_EED2Ev
	.section	.text._ZNSt6vectorIPN3hsm18StateValueResetterESaIS2_EE21_M_default_initializeEm,"axG",@progbits,_ZNSt6vectorIPN3hsm18StateValueResetterESaIS2_EE21_M_default_initializeEm,comdat
	.align 2
	.weak	_ZNSt6vectorIPN3hsm18StateValueResetterESaIS2_EE21_M_default_initializeEm
	.type	_ZNSt6vectorIPN3hsm18StateValueResetterESaIS2_EE21_M_default_initializeEm, @function
_ZNSt6vectorIPN3hsm18StateValueResetterESaIS2_EE21_M_default_initializeEm:
.LFB3291:
	.cfi_startproc
	endbr64
	pushq	%rbp
	.cfi_def_cfa_offset 16
	.cfi_offset 6, -16
	movq	%rsp, %rbp
	.cfi_def_cfa_register 6
	subq	$16, %rsp
	movq	%rdi, -8(%rbp)
	movq	%rsi, -16(%rbp)
	movq	-8(%rbp), %rax
	movq	%rax, %rdi
	call	_ZNSt12_Vector_baseIPN3hsm18StateValueResetterESaIS2_EE19_M_get_Tp_allocatorEv
	movq	%rax, %rdx
	movq	-8(%rbp), %rax
	movq	(%rax), %rax
	movq	-16(%rbp), %rcx
	movq	%rcx, %rsi
	movq	%rax, %rdi
	call	_ZSt27__uninitialized_default_n_aIPPN3hsm18StateValueResetterEmS2_ET_S4_T0_RSaIT1_E
	movq	-8(%rbp), %rdx
	movq	%rax, 8(%rdx)
	nop
	leave
	.cfi_def_cfa 7, 8
	ret
	.cfi_endproc
.LFE3291:
	.size	_ZNSt6vectorIPN3hsm18StateValueResetterESaIS2_EE21_M_default_initializeEm, .-_ZNSt6vectorIPN3hsm18StateValueResetterESaIS2_EE21_M_default_initializeEm
	.section	.text._ZNSt12_Vector_baseIPN3hsm18StateValueResetterESaIS2_EE19_M_get_Tp_allocatorEv,"axG",@progbits,_ZNSt12_Vector_baseIPN3hsm18StateValueResetterESaIS2_EE19_M_get_Tp_allocatorEv,comdat
	.align 2
	.weak	_ZNSt12_Vector_baseIPN3hsm18StateValueResetterESaIS2_EE19_M_get_Tp_allocatorEv
	.type	_ZNSt12_Vector_baseIPN3hsm18StateValueResetterESaIS2_EE19_M_get_Tp_allocatorEv, @function
_ZNSt12_Vector_baseIPN3hsm18StateValueResetterESaIS2_EE19_M_get_Tp_allocatorEv:
.LFB3292:
	.cfi_startproc
	endbr64
	pushq	%rbp
	.cfi_def_cfa_offset 16
	.cfi_offset 6, -16
	movq	%rsp, %rbp
	.cfi_def_cfa_register 6
	movq	%rdi, -8(%rbp)
	movq	-8(%rbp), %rax
	popq	%rbp
	.cfi_def_cfa 7, 8
	ret
	.cfi_endproc
.LFE3292:
	.size	_ZNSt12_Vector_baseIPN3hsm18StateValueResetterESaIS2_EE19_M_get_Tp_allocatorEv, .-_ZNSt12_Vector_baseIPN3hsm18StateValueResetterESaIS2_EE19_M_get_Tp_allocatorEv
	.section	.text._ZSt8_DestroyIPPN3hsm18StateValueResetterES2_EvT_S4_RSaIT0_E,"axG",@progbits,_ZSt8_DestroyIPPN3hsm18StateValueResetterES2_EvT_S4_RSaIT0_E,comdat
	.weak	_ZSt8_DestroyIPPN3hsm18StateValueResetterES2_EvT_S4_RSaIT0_E
	.type	_ZSt8_DestroyIPPN3hsm18StateValueResetterES2_EvT_S4_RSaIT0_E, @function
_ZSt8_DestroyIPPN3hsm18StateValueResetterES2_EvT_S4_RSaIT0_E:
.LFB3293:
	.cfi_startproc
	endbr64
	pushq	%rbp
	.cfi_def_cfa_offset 16
	.cfi_offset 6, -16
	movq	%rsp, %rbp
	.cfi_def_cfa_register 6
	subq	$32, %rsp
	movq	%rdi, -8(%rbp)
	movq	%rsi, -16(%rbp)
	movq	%rdx, -24(%rbp)
	movq	-16(%rbp), %rdx
	movq	-8(%rbp), %rax
	movq	%rdx, %rsi
	movq	%rax, %rdi
	call	_ZSt8_DestroyIPPN3hsm18StateValueResetterEEvT_S4_
	nop
	leave
	.cfi_def_cfa 7, 8
	ret
	.cfi_endproc
.LFE3293:
	.size	_ZSt8_DestroyIPPN3hsm18StateValueResetterES2_EvT_S4_RSaIT0_E, .-_ZSt8_DestroyIPPN3hsm18StateValueResetterES2_EvT_S4_RSaIT0_E
	.section	.text._ZN9__gnu_cxx17__normal_iteratorIPPN3hsm18StateValueResetterESt6vectorIS3_SaIS3_EEEC2ERKS4_,"axG",@progbits,_ZN9__gnu_cxx17__normal_iteratorIPPN3hsm18StateValueResetterESt6vectorIS3_SaIS3_EEEC5ERKS4_,comdat
	.align 2
	.weak	_ZN9__gnu_cxx17__normal_iteratorIPPN3hsm18StateValueResetterESt6vectorIS3_SaIS3_EEEC2ERKS4_
	.type	_ZN9__gnu_cxx17__normal_iteratorIPPN3hsm18StateValueResetterESt6vectorIS3_SaIS3_EEEC2ERKS4_, @function
_ZN9__gnu_cxx17__normal_iteratorIPPN3hsm18StateValueResetterESt6vectorIS3_SaIS3_EEEC2ERKS4_:
.LFB3295:
	.cfi_startproc
	endbr64
	pushq	%rbp
	.cfi_def_cfa_offset 16
	.cfi_offset 6, -16
	movq	%rsp, %rbp
	.cfi_def_cfa_register 6
	movq	%rdi, -8(%rbp)
	movq	%rsi, -16(%rbp)
	movq	-16(%rbp), %rax
	movq	(%rax), %rdx
	movq	-8(%rbp), %rax
	movq	%rdx, (%rax)
	nop
	popq	%rbp
	.cfi_def_cfa 7, 8
	ret
	.cfi_endproc
.LFE3295:
	.size	_ZN9__gnu_cxx17__normal_iteratorIPPN3hsm18StateValueResetterESt6vectorIS3_SaIS3_EEEC2ERKS4_, .-_ZN9__gnu_cxx17__normal_iteratorIPPN3hsm18StateValueResetterESt6vectorIS3_SaIS3_EEEC2ERKS4_
	.weak	_ZN9__gnu_cxx17__normal_iteratorIPPN3hsm18StateValueResetterESt6vectorIS3_SaIS3_EEEC1ERKS4_
	.set	_ZN9__gnu_cxx17__normal_iteratorIPPN3hsm18StateValueResetterESt6vectorIS3_SaIS3_EEEC1ERKS4_,_ZN9__gnu_cxx17__normal_iteratorIPPN3hsm18StateValueResetterESt6vectorIS3_SaIS3_EEEC2ERKS4_
	.section	.text._ZNK9__gnu_cxx17__normal_iteratorIPPN3hsm18StateValueResetterESt6vectorIS3_SaIS3_EEE4baseEv,"axG",@progbits,_ZNK9__gnu_cxx17__normal_iteratorIPPN3hsm18StateValueResetterESt6vectorIS3_SaIS3_EEE4baseEv,comdat
	.align 2
	.weak	_ZNK9__gnu_cxx17__normal_iteratorIPPN3hsm18StateValueResetterESt6vectorIS3_SaIS3_EEE4baseEv
	.type	_ZNK9__gnu_cxx17__normal_iteratorIPPN3hsm18StateValueResetterESt6vectorIS3_SaIS3_EEE4baseEv, @function
_ZNK9__gnu_cxx17__normal_iteratorIPPN3hsm18StateValueResetterESt6vectorIS3_SaIS3_EEE4baseEv:
.LFB3297:
	.cfi_startproc
	endbr64
	pushq	%rbp
	.cfi_def_cfa_offset 16
	.cfi_offset 6, -16
	movq	%rsp, %rbp
	.cfi_def_cfa_register 6
	movq	%rdi, -8(%rbp)
	movq	-8(%rbp), %rax
	popq	%rbp
	.cfi_def_cfa 7, 8
	ret
	.cfi_endproc
.LFE3297:
	.size	_ZNK9__gnu_cxx17__normal_iteratorIPPN3hsm18StateValueResetterESt6vectorIS3_SaIS3_EEE4baseEv, .-_ZNK9__gnu_cxx17__normal_iteratorIPPN3hsm18StateValueResetterESt6vectorIS3_SaIS3_EEE4baseEv
	.section	.text._ZNSt6vectorIPN3hsm18StateValueResetterESaIS2_EE15_M_erase_at_endEPS2_,"axG",@progbits,_ZNSt6vectorIPN3hsm18StateValueResetterESaIS2_EE15_M_erase_at_endEPS2_,comdat
	.align 2
	.weak	_ZNSt6vectorIPN3hsm18StateValueResetterESaIS2_EE15_M_erase_at_endEPS2_
	.type	_ZNSt6vectorIPN3hsm18StateValueResetterESaIS2_EE15_M_erase_at_endEPS2_, @function
_ZNSt6vectorIPN3hsm18StateValueResetterESaIS2_EE15_M_erase_at_endEPS2_:
.LFB3298:
	.cfi_startproc
	.cfi_personality 0x9b,DW.ref.__gxx_personality_v0
	.cfi_lsda 0x1b,.LLSDA3298
	endbr64
	pushq	%rbp
	.cfi_def_cfa_offset 16
	.cfi_offset 6, -16
	movq	%rsp, %rbp
	.cfi_def_cfa_register 6
	subq	$32, %rsp
	movq	%rdi, -24(%rbp)
	movq	%rsi, -32(%rbp)
	movq	-24(%rbp), %rax
	movq	8(%rax), %rax
	subq	-32(%rbp), %rax
	sarq	$3, %rax
	movq	%rax, -8(%rbp)
	cmpq	$0, -8(%rbp)
	je	.L278
	movq	-24(%rbp), %rax
	movq	%rax, %rdi
	call	_ZNSt12_Vector_baseIPN3hsm18StateValueResetterESaIS2_EE19_M_get_Tp_allocatorEv
	movq	%rax, %rdx
	movq	-24(%rbp), %rax
	movq	8(%rax), %rcx
	movq	-32(%rbp), %rax
	movq	%rcx, %rsi
	movq	%rax, %rdi
	call	_ZSt8_DestroyIPPN3hsm18StateValueResetterES2_EvT_S4_RSaIT0_E
	movq	-24(%rbp), %rax
	movq	-32(%rbp), %rdx
	movq	%rdx, 8(%rax)
.L278:
	nop
	leave
	.cfi_def_cfa 7, 8
	ret
	.cfi_endproc
.LFE3298:
	.section	.gcc_except_table
.LLSDA3298:
	.byte	0xff
	.byte	0xff
	.byte	0x1
	.uleb128 .LLSDACSE3298-.LLSDACSB3298
.LLSDACSB3298:
.LLSDACSE3298:
	.section	.text._ZNSt6vectorIPN3hsm18StateValueResetterESaIS2_EE15_M_erase_at_endEPS2_,"axG",@progbits,_ZNSt6vectorIPN3hsm18StateValueResetterESaIS2_EE15_M_erase_at_endEPS2_,comdat
	.size	_ZNSt6vectorIPN3hsm18StateValueResetterESaIS2_EE15_M_erase_at_endEPS2_, .-_ZNSt6vectorIPN3hsm18StateValueResetterESaIS2_EE15_M_erase_at_endEPS2_
	.section	.text._ZNKSt6vectorIPN3hsm5StateESaIS2_EE5beginEv,"axG",@progbits,_ZNKSt6vectorIPN3hsm5StateESaIS2_EE5beginEv,comdat
	.align 2
	.weak	_ZNKSt6vectorIPN3hsm5StateESaIS2_EE5beginEv
	.type	_ZNKSt6vectorIPN3hsm5StateESaIS2_EE5beginEv, @function
_ZNKSt6vectorIPN3hsm5StateESaIS2_EE5beginEv:
.LFB3299:
	.cfi_startproc
	endbr64
	pushq	%rbp
	.cfi_def_cfa_offset 16
	.cfi_offset 6, -16
	movq	%rsp, %rbp
	.cfi_def_cfa_register 6
	subq	$32, %rsp
	movq	%rdi, -24(%rbp)
	movq	%fs:40, %rax
	movq	%rax, -8(%rbp)
	xorl	%eax, %eax
	movq	-24(%rbp), %rdx
	leaq	-16(%rbp), %rax
	movq	%rdx, %rsi
	movq	%rax, %rdi
	call	_ZN9__gnu_cxx17__normal_iteratorIPKPN3hsm5StateESt6vectorIS3_SaIS3_EEEC1ERKS5_
	movq	-16(%rbp), %rax
	movq	-8(%rbp), %rdx
	subq	%fs:40, %rdx
	je	.L281
	call	__stack_chk_fail@PLT
.L281:
	leave
	.cfi_def_cfa 7, 8
	ret
	.cfi_endproc
.LFE3299:
	.size	_ZNKSt6vectorIPN3hsm5StateESaIS2_EE5beginEv, .-_ZNKSt6vectorIPN3hsm5StateESaIS2_EE5beginEv
	.section	.text._ZNKSt6vectorIPN3hsm5StateESaIS2_EE3endEv,"axG",@progbits,_ZNKSt6vectorIPN3hsm5StateESaIS2_EE3endEv,comdat
	.align 2
	.weak	_ZNKSt6vectorIPN3hsm5StateESaIS2_EE3endEv
	.type	_ZNKSt6vectorIPN3hsm5StateESaIS2_EE3endEv, @function
_ZNKSt6vectorIPN3hsm5StateESaIS2_EE3endEv:
.LFB3300:
	.cfi_startproc
	endbr64
	pushq	%rbp
	.cfi_def_cfa_offset 16
	.cfi_offset 6, -16
	movq	%rsp, %rbp
	.cfi_def_cfa_register 6
	subq	$32, %rsp
	movq	%rdi, -24(%rbp)
	movq	%fs:40, %rax
	movq	%rax, -8(%rbp)
	xorl	%eax, %eax
	movq	-24(%rbp), %rax
	leaq	8(%rax), %rdx
	leaq	-16(%rbp), %rax
	movq	%rdx, %rsi
	movq	%rax, %rdi
	call	_ZN9__gnu_cxx17__normal_iteratorIPKPN3hsm5StateESt6vectorIS3_SaIS3_EEEC1ERKS5_
	movq	-16(%rbp), %rax
	movq	-8(%rbp), %rdx
	subq	%fs:40, %rdx
	je	.L284
	call	__stack_chk_fail@PLT
.L284:
	leave
	.cfi_def_cfa 7, 8
	ret
	.cfi_endproc
.LFE3300:
	.size	_ZNKSt6vectorIPN3hsm5StateESaIS2_EE3endEv, .-_ZNKSt6vectorIPN3hsm5StateESaIS2_EE3endEv
	.section	.text._ZN9__gnu_cxxeqIPKPN3hsm5StateESt6vectorIS3_SaIS3_EEEEbRKNS_17__normal_iteratorIT_T0_EESE_,"axG",@progbits,_ZN9__gnu_cxxeqIPKPN3hsm5StateESt6vectorIS3_SaIS3_EEEEbRKNS_17__normal_iteratorIT_T0_EESE_,comdat
	.weak	_ZN9__gnu_cxxeqIPKPN3hsm5StateESt6vectorIS3_SaIS3_EEEEbRKNS_17__normal_iteratorIT_T0_EESE_
	.type	_ZN9__gnu_cxxeqIPKPN3hsm5StateESt6vectorIS3_SaIS3_EEEEbRKNS_17__normal_iteratorIT_T0_EESE_, @function
_ZN9__gnu_cxxeqIPKPN3hsm5StateESt6vectorIS3_SaIS3_EEEEbRKNS_17__normal_iteratorIT_T0_EESE_:
.LFB3301:
	.cfi_startproc
	endbr64
	pushq	%rbp
	.cfi_def_cfa_offset 16
	.cfi_offset 6, -16
	movq	%rsp, %rbp
	.cfi_def_cfa_register 6
	pushq	%rbx
	subq	$24, %rsp
	.cfi_offset 3, -24
	movq	%rdi, -24(%rbp)
	movq	%rsi, -32(%rbp)
	movq	-24(%rbp), %rax
	movq	%rax, %rdi
	call	_ZNK9__gnu_cxx17__normal_iteratorIPKPN3hsm5StateESt6vectorIS3_SaIS3_EEE4baseEv
	movq	(%rax), %rbx
	movq	-32(%rbp), %rax
	movq	%rax, %rdi
	call	_ZNK9__gnu_cxx17__normal_iteratorIPKPN3hsm5StateESt6vectorIS3_SaIS3_EEE4baseEv
	movq	(%rax), %rax
	cmpq	%rax, %rbx
	sete	%al
	movq	-8(%rbp), %rbx
	leave
	.cfi_def_cfa 7, 8
	ret
	.cfi_endproc
.LFE3301:
	.size	_ZN9__gnu_cxxeqIPKPN3hsm5StateESt6vectorIS3_SaIS3_EEEEbRKNS_17__normal_iteratorIT_T0_EESE_, .-_ZN9__gnu_cxxeqIPKPN3hsm5StateESt6vectorIS3_SaIS3_EEEEbRKNS_17__normal_iteratorIT_T0_EESE_
	.section	.text._ZN9__gnu_cxx17__normal_iteratorIPPN3hsm5StateESt6vectorIS3_SaIS3_EEEC2ERKS4_,"axG",@progbits,_ZN9__gnu_cxx17__normal_iteratorIPPN3hsm5StateESt6vectorIS3_SaIS3_EEEC5ERKS4_,comdat
	.align 2
	.weak	_ZN9__gnu_cxx17__normal_iteratorIPPN3hsm5StateESt6vectorIS3_SaIS3_EEEC2ERKS4_
	.type	_ZN9__gnu_cxx17__normal_iteratorIPPN3hsm5StateESt6vectorIS3_SaIS3_EEEC2ERKS4_, @function
_ZN9__gnu_cxx17__normal_iteratorIPPN3hsm5StateESt6vectorIS3_SaIS3_EEEC2ERKS4_:
.LFB3303:
	.cfi_startproc
	endbr64
	pushq	%rbp
	.cfi_def_cfa_offset 16
	.cfi_offset 6, -16
	movq	%rsp, %rbp
	.cfi_def_cfa_register 6
	movq	%rdi, -8(%rbp)
	movq	%rsi, -16(%rbp)
	movq	-16(%rbp), %rax
	movq	(%rax), %rdx
	movq	-8(%rbp), %rax
	movq	%rdx, (%rax)
	nop
	popq	%rbp
	.cfi_def_cfa 7, 8
	ret
	.cfi_endproc
.LFE3303:
	.size	_ZN9__gnu_cxx17__normal_iteratorIPPN3hsm5StateESt6vectorIS3_SaIS3_EEEC2ERKS4_, .-_ZN9__gnu_cxx17__normal_iteratorIPPN3hsm5StateESt6vectorIS3_SaIS3_EEEC2ERKS4_
	.weak	_ZN9__gnu_cxx17__normal_iteratorIPPN3hsm5StateESt6vectorIS3_SaIS3_EEEC1ERKS4_
	.set	_ZN9__gnu_cxx17__normal_iteratorIPPN3hsm5StateESt6vectorIS3_SaIS3_EEEC1ERKS4_,_ZN9__gnu_cxx17__normal_iteratorIPPN3hsm5StateESt6vectorIS3_SaIS3_EEEC2ERKS4_
	.section	.text._ZNSaIPN3hsm5StateEEC2Ev,"axG",@progbits,_ZNSaIPN3hsm5StateEEC5Ev,comdat
	.align 2
	.weak	_ZNSaIPN3hsm5StateEEC2Ev
	.type	_ZNSaIPN3hsm5StateEEC2Ev, @function
_ZNSaIPN3hsm5StateEEC2Ev:
.LFB3309:
	.cfi_startproc
	endbr64
	pushq	%rbp
	.cfi_def_cfa_offset 16
	.cfi_offset 6, -16
	movq	%rsp, %rbp
	.cfi_def_cfa_register 6
	subq	$16, %rsp
	movq	%rdi, -8(%rbp)
	movq	-8(%rbp), %rax
	movq	%rax, %rdi
	call	_ZN9__gnu_cxx13new_allocatorIPN3hsm5StateEEC2Ev
	nop
	leave
	.cfi_def_cfa 7, 8
	ret
	.cfi_endproc
.LFE3309:
	.size	_ZNSaIPN3hsm5StateEEC2Ev, .-_ZNSaIPN3hsm5StateEEC2Ev
	.weak	_ZNSaIPN3hsm5StateEEC1Ev
	.set	_ZNSaIPN3hsm5StateEEC1Ev,_ZNSaIPN3hsm5StateEEC2Ev
	.section	.text._ZNSt12_Vector_baseIPN3hsm5StateESaIS2_EE17_Vector_impl_dataC2Ev,"axG",@progbits,_ZNSt12_Vector_baseIPN3hsm5StateESaIS2_EE17_Vector_impl_dataC5Ev,comdat
	.align 2
	.weak	_ZNSt12_Vector_baseIPN3hsm5StateESaIS2_EE17_Vector_impl_dataC2Ev
	.type	_ZNSt12_Vector_baseIPN3hsm5StateESaIS2_EE17_Vector_impl_dataC2Ev, @function
_ZNSt12_Vector_baseIPN3hsm5StateESaIS2_EE17_Vector_impl_dataC2Ev:
.LFB3312:
	.cfi_startproc
	endbr64
	pushq	%rbp
	.cfi_def_cfa_offset 16
	.cfi_offset 6, -16
	movq	%rsp, %rbp
	.cfi_def_cfa_register 6
	movq	%rdi, -8(%rbp)
	movq	-8(%rbp), %rax
	movq	$0, (%rax)
	movq	-8(%rbp), %rax
	movq	$0, 8(%rax)
	movq	-8(%rbp), %rax
	movq	$0, 16(%rax)
	nop
	popq	%rbp
	.cfi_def_cfa 7, 8
	ret
	.cfi_endproc
.LFE3312:
	.size	_ZNSt12_Vector_baseIPN3hsm5StateESaIS2_EE17_Vector_impl_dataC2Ev, .-_ZNSt12_Vector_baseIPN3hsm5StateESaIS2_EE17_Vector_impl_dataC2Ev
	.weak	_ZNSt12_Vector_baseIPN3hsm5StateESaIS2_EE17_Vector_impl_dataC1Ev
	.set	_ZNSt12_Vector_baseIPN3hsm5StateESaIS2_EE17_Vector_impl_dataC1Ev,_ZNSt12_Vector_baseIPN3hsm5StateESaIS2_EE17_Vector_impl_dataC2Ev
	.section	.text._ZN9__gnu_cxx13new_allocatorIPN3hsm5StateEED2Ev,"axG",@progbits,_ZN9__gnu_cxx13new_allocatorIPN3hsm5StateEED5Ev,comdat
	.align 2
	.weak	_ZN9__gnu_cxx13new_allocatorIPN3hsm5StateEED2Ev
	.type	_ZN9__gnu_cxx13new_allocatorIPN3hsm5StateEED2Ev, @function
_ZN9__gnu_cxx13new_allocatorIPN3hsm5StateEED2Ev:
.LFB3315:
	.cfi_startproc
	endbr64
	pushq	%rbp
	.cfi_def_cfa_offset 16
	.cfi_offset 6, -16
	movq	%rsp, %rbp
	.cfi_def_cfa_register 6
	movq	%rdi, -8(%rbp)
	nop
	popq	%rbp
	.cfi_def_cfa 7, 8
	ret
	.cfi_endproc
.LFE3315:
	.size	_ZN9__gnu_cxx13new_allocatorIPN3hsm5StateEED2Ev, .-_ZN9__gnu_cxx13new_allocatorIPN3hsm5StateEED2Ev
	.weak	_ZN9__gnu_cxx13new_allocatorIPN3hsm5StateEED1Ev
	.set	_ZN9__gnu_cxx13new_allocatorIPN3hsm5StateEED1Ev,_ZN9__gnu_cxx13new_allocatorIPN3hsm5StateEED2Ev
	.section	.text._ZNSt12_Vector_baseIPN3hsm5StateESaIS2_EE13_M_deallocateEPS2_m,"axG",@progbits,_ZNSt12_Vector_baseIPN3hsm5StateESaIS2_EE13_M_deallocateEPS2_m,comdat
	.align 2
	.weak	_ZNSt12_Vector_baseIPN3hsm5StateESaIS2_EE13_M_deallocateEPS2_m
	.type	_ZNSt12_Vector_baseIPN3hsm5StateESaIS2_EE13_M_deallocateEPS2_m, @function
_ZNSt12_Vector_baseIPN3hsm5StateESaIS2_EE13_M_deallocateEPS2_m:
.LFB3317:
	.cfi_startproc
	endbr64
	pushq	%rbp
	.cfi_def_cfa_offset 16
	.cfi_offset 6, -16
	movq	%rsp, %rbp
	.cfi_def_cfa_register 6
	subq	$32, %rsp
	movq	%rdi, -8(%rbp)
	movq	%rsi, -16(%rbp)
	movq	%rdx, -24(%rbp)
	cmpq	$0, -16(%rbp)
	je	.L293
	movq	-8(%rbp), %rax
	movq	-24(%rbp), %rdx
	movq	-16(%rbp), %rcx
	movq	%rcx, %rsi
	movq	%rax, %rdi
	call	_ZNSt16allocator_traitsISaIPN3hsm5StateEEE10deallocateERS3_PS2_m
.L293:
	nop
	leave
	.cfi_def_cfa 7, 8
	ret
	.cfi_endproc
.LFE3317:
	.size	_ZNSt12_Vector_baseIPN3hsm5StateESaIS2_EE13_M_deallocateEPS2_m, .-_ZNSt12_Vector_baseIPN3hsm5StateESaIS2_EE13_M_deallocateEPS2_m
	.section	.text._ZNSt12_Vector_baseIPN3hsm5StateESaIS2_EE19_M_get_Tp_allocatorEv,"axG",@progbits,_ZNSt12_Vector_baseIPN3hsm5StateESaIS2_EE19_M_get_Tp_allocatorEv,comdat
	.align 2
	.weak	_ZNSt12_Vector_baseIPN3hsm5StateESaIS2_EE19_M_get_Tp_allocatorEv
	.type	_ZNSt12_Vector_baseIPN3hsm5StateESaIS2_EE19_M_get_Tp_allocatorEv, @function
_ZNSt12_Vector_baseIPN3hsm5StateESaIS2_EE19_M_get_Tp_allocatorEv:
.LFB3318:
	.cfi_startproc
	endbr64
	pushq	%rbp
	.cfi_def_cfa_offset 16
	.cfi_offset 6, -16
	movq	%rsp, %rbp
	.cfi_def_cfa_register 6
	movq	%rdi, -8(%rbp)
	movq	-8(%rbp), %rax
	popq	%rbp
	.cfi_def_cfa 7, 8
	ret
	.cfi_endproc
.LFE3318:
	.size	_ZNSt12_Vector_baseIPN3hsm5StateESaIS2_EE19_M_get_Tp_allocatorEv, .-_ZNSt12_Vector_baseIPN3hsm5StateESaIS2_EE19_M_get_Tp_allocatorEv
	.section	.text._ZSt8_DestroyIPPN3hsm5StateES2_EvT_S4_RSaIT0_E,"axG",@progbits,_ZSt8_DestroyIPPN3hsm5StateES2_EvT_S4_RSaIT0_E,comdat
	.weak	_ZSt8_DestroyIPPN3hsm5StateES2_EvT_S4_RSaIT0_E
	.type	_ZSt8_DestroyIPPN3hsm5StateES2_EvT_S4_RSaIT0_E, @function
_ZSt8_DestroyIPPN3hsm5StateES2_EvT_S4_RSaIT0_E:
.LFB3319:
	.cfi_startproc
	endbr64
	pushq	%rbp
	.cfi_def_cfa_offset 16
	.cfi_offset 6, -16
	movq	%rsp, %rbp
	.cfi_def_cfa_register 6
	subq	$32, %rsp
	movq	%rdi, -8(%rbp)
	movq	%rsi, -16(%rbp)
	movq	%rdx, -24(%rbp)
	movq	-16(%rbp), %rdx
	movq	-8(%rbp), %rax
	movq	%rdx, %rsi
	movq	%rax, %rdi
	call	_ZSt8_DestroyIPPN3hsm5StateEEvT_S4_
	nop
	leave
	.cfi_def_cfa 7, 8
	ret
	.cfi_endproc
.LFE3319:
	.size	_ZSt8_DestroyIPPN3hsm5StateES2_EvT_S4_RSaIT0_E, .-_ZSt8_DestroyIPPN3hsm5StateES2_EvT_S4_RSaIT0_E
	.section	.text._ZNSaISt13_Rb_tree_nodeISt4pairIKPKN3hsm12StateFactoryES4_EEEC2Ev,"axG",@progbits,_ZNSaISt13_Rb_tree_nodeISt4pairIKPKN3hsm12StateFactoryES4_EEEC5Ev,comdat
	.align 2
	.weak	_ZNSaISt13_Rb_tree_nodeISt4pairIKPKN3hsm12StateFactoryES4_EEEC2Ev
	.type	_ZNSaISt13_Rb_tree_nodeISt4pairIKPKN3hsm12StateFactoryES4_EEEC2Ev, @function
_ZNSaISt13_Rb_tree_nodeISt4pairIKPKN3hsm12StateFactoryES4_EEEC2Ev:
.LFB3321:
	.cfi_startproc
	endbr64
	pushq	%rbp
	.cfi_def_cfa_offset 16
	.cfi_offset 6, -16
	movq	%rsp, %rbp
	.cfi_def_cfa_register 6
	subq	$16, %rsp
	movq	%rdi, -8(%rbp)
	movq	-8(%rbp), %rax
	movq	%rax, %rdi
	call	_ZN9__gnu_cxx13new_allocatorISt13_Rb_tree_nodeISt4pairIKPKN3hsm12StateFactoryES6_EEEC2Ev
	nop
	leave
	.cfi_def_cfa 7, 8
	ret
	.cfi_endproc
.LFE3321:
	.size	_ZNSaISt13_Rb_tree_nodeISt4pairIKPKN3hsm12StateFactoryES4_EEEC2Ev, .-_ZNSaISt13_Rb_tree_nodeISt4pairIKPKN3hsm12StateFactoryES4_EEEC2Ev
	.weak	_ZNSaISt13_Rb_tree_nodeISt4pairIKPKN3hsm12StateFactoryES4_EEEC1Ev
	.set	_ZNSaISt13_Rb_tree_nodeISt4pairIKPKN3hsm12StateFactoryES4_EEEC1Ev,_ZNSaISt13_Rb_tree_nodeISt4pairIKPKN3hsm12StateFactoryES4_EEEC2Ev
	.section	.text._ZNSt20_Rb_tree_key_compareISt4lessIPKN3hsm12StateFactoryEEEC2Ev,"axG",@progbits,_ZNSt20_Rb_tree_key_compareISt4lessIPKN3hsm12StateFactoryEEEC5Ev,comdat
	.align 2
	.weak	_ZNSt20_Rb_tree_key_compareISt4lessIPKN3hsm12StateFactoryEEEC2Ev
	.type	_ZNSt20_Rb_tree_key_compareISt4lessIPKN3hsm12StateFactoryEEEC2Ev, @function
_ZNSt20_Rb_tree_key_compareISt4lessIPKN3hsm12StateFactoryEEEC2Ev:
.LFB3324:
	.cfi_startproc
	endbr64
	pushq	%rbp
	.cfi_def_cfa_offset 16
	.cfi_offset 6, -16
	movq	%rsp, %rbp
	.cfi_def_cfa_register 6
	movq	%rdi, -8(%rbp)
	nop
	popq	%rbp
	.cfi_def_cfa 7, 8
	ret
	.cfi_endproc
.LFE3324:
	.size	_ZNSt20_Rb_tree_key_compareISt4lessIPKN3hsm12StateFactoryEEEC2Ev, .-_ZNSt20_Rb_tree_key_compareISt4lessIPKN3hsm12StateFactoryEEEC2Ev
	.weak	_ZNSt20_Rb_tree_key_compareISt4lessIPKN3hsm12StateFactoryEEEC1Ev
	.set	_ZNSt20_Rb_tree_key_compareISt4lessIPKN3hsm12StateFactoryEEEC1Ev,_ZNSt20_Rb_tree_key_compareISt4lessIPKN3hsm12StateFactoryEEEC2Ev
	.section	.text._ZN9__gnu_cxx13new_allocatorISt13_Rb_tree_nodeISt4pairIKPKN3hsm12StateFactoryES6_EEED2Ev,"axG",@progbits,_ZN9__gnu_cxx13new_allocatorISt13_Rb_tree_nodeISt4pairIKPKN3hsm12StateFactoryES6_EEED5Ev,comdat
	.align 2
	.weak	_ZN9__gnu_cxx13new_allocatorISt13_Rb_tree_nodeISt4pairIKPKN3hsm12StateFactoryES6_EEED2Ev
	.type	_ZN9__gnu_cxx13new_allocatorISt13_Rb_tree_nodeISt4pairIKPKN3hsm12StateFactoryES6_EEED2Ev, @function
_ZN9__gnu_cxx13new_allocatorISt13_Rb_tree_nodeISt4pairIKPKN3hsm12StateFactoryES6_EEED2Ev:
.LFB3327:
	.cfi_startproc
	endbr64
	pushq	%rbp
	.cfi_def_cfa_offset 16
	.cfi_offset 6, -16
	movq	%rsp, %rbp
	.cfi_def_cfa_register 6
	movq	%rdi, -8(%rbp)
	nop
	popq	%rbp
	.cfi_def_cfa 7, 8
	ret
	.cfi_endproc
.LFE3327:
	.size	_ZN9__gnu_cxx13new_allocatorISt13_Rb_tree_nodeISt4pairIKPKN3hsm12StateFactoryES6_EEED2Ev, .-_ZN9__gnu_cxx13new_allocatorISt13_Rb_tree_nodeISt4pairIKPKN3hsm12StateFactoryES6_EEED2Ev
	.weak	_ZN9__gnu_cxx13new_allocatorISt13_Rb_tree_nodeISt4pairIKPKN3hsm12StateFactoryES6_EEED1Ev
	.set	_ZN9__gnu_cxx13new_allocatorISt13_Rb_tree_nodeISt4pairIKPKN3hsm12StateFactoryES6_EEED1Ev,_ZN9__gnu_cxx13new_allocatorISt13_Rb_tree_nodeISt4pairIKPKN3hsm12StateFactoryES6_EEED2Ev
	.section	.text._ZNSt8_Rb_treeIPKN3hsm12StateFactoryESt4pairIKS3_S3_ESt10_Select1stIS6_ESt4lessIS3_ESaIS6_EE8_M_eraseEPSt13_Rb_tree_nodeIS6_E,"axG",@progbits,_ZNSt8_Rb_treeIPKN3hsm12StateFactoryESt4pairIKS3_S3_ESt10_Select1stIS6_ESt4lessIS3_ESaIS6_EE8_M_eraseEPSt13_Rb_tree_nodeIS6_E,comdat
	.align 2
	.weak	_ZNSt8_Rb_treeIPKN3hsm12StateFactoryESt4pairIKS3_S3_ESt10_Select1stIS6_ESt4lessIS3_ESaIS6_EE8_M_eraseEPSt13_Rb_tree_nodeIS6_E
	.type	_ZNSt8_Rb_treeIPKN3hsm12StateFactoryESt4pairIKS3_S3_ESt10_Select1stIS6_ESt4lessIS3_ESaIS6_EE8_M_eraseEPSt13_Rb_tree_nodeIS6_E, @function
_ZNSt8_Rb_treeIPKN3hsm12StateFactoryESt4pairIKS3_S3_ESt10_Select1stIS6_ESt4lessIS3_ESaIS6_EE8_M_eraseEPSt13_Rb_tree_nodeIS6_E:
.LFB3329:
	.cfi_startproc
	endbr64
	pushq	%rbp
	.cfi_def_cfa_offset 16
	.cfi_offset 6, -16
	movq	%rsp, %rbp
	.cfi_def_cfa_register 6
	subq	$32, %rsp
	movq	%rdi, -24(%rbp)
	movq	%rsi, -32(%rbp)
	jmp	.L301
.L302:
	movq	-32(%rbp), %rax
	movq	%rax, %rdi
	call	_ZNSt8_Rb_treeIPKN3hsm12StateFactoryESt4pairIKS3_S3_ESt10_Select1stIS6_ESt4lessIS3_ESaIS6_EE8_S_rightEPSt18_Rb_tree_node_base
	movq	%rax, %rdx
	movq	-24(%rbp), %rax
	movq	%rdx, %rsi
	movq	%rax, %rdi
	call	_ZNSt8_Rb_treeIPKN3hsm12StateFactoryESt4pairIKS3_S3_ESt10_Select1stIS6_ESt4lessIS3_ESaIS6_EE8_M_eraseEPSt13_Rb_tree_nodeIS6_E
	movq	-32(%rbp), %rax
	movq	%rax, %rdi
	call	_ZNSt8_Rb_treeIPKN3hsm12StateFactoryESt4pairIKS3_S3_ESt10_Select1stIS6_ESt4lessIS3_ESaIS6_EE7_S_leftEPSt18_Rb_tree_node_base
	movq	%rax, -8(%rbp)
	movq	-32(%rbp), %rdx
	movq	-24(%rbp), %rax
	movq	%rdx, %rsi
	movq	%rax, %rdi
	call	_ZNSt8_Rb_treeIPKN3hsm12StateFactoryESt4pairIKS3_S3_ESt10_Select1stIS6_ESt4lessIS3_ESaIS6_EE12_M_drop_nodeEPSt13_Rb_tree_nodeIS6_E
	movq	-8(%rbp), %rax
	movq	%rax, -32(%rbp)
.L301:
	cmpq	$0, -32(%rbp)
	jne	.L302
	nop
	nop
	leave
	.cfi_def_cfa 7, 8
	ret
	.cfi_endproc
.LFE3329:
	.size	_ZNSt8_Rb_treeIPKN3hsm12StateFactoryESt4pairIKS3_S3_ESt10_Select1stIS6_ESt4lessIS3_ESaIS6_EE8_M_eraseEPSt13_Rb_tree_nodeIS6_E, .-_ZNSt8_Rb_treeIPKN3hsm12StateFactoryESt4pairIKS3_S3_ESt10_Select1stIS6_ESt4lessIS3_ESaIS6_EE8_M_eraseEPSt13_Rb_tree_nodeIS6_E
	.section	.text._ZNSt8_Rb_treeIPKN3hsm12StateFactoryESt4pairIKS3_S3_ESt10_Select1stIS6_ESt4lessIS3_ESaIS6_EE8_M_beginEv,"axG",@progbits,_ZNSt8_Rb_treeIPKN3hsm12StateFactoryESt4pairIKS3_S3_ESt10_Select1stIS6_ESt4lessIS3_ESaIS6_EE8_M_beginEv,comdat
	.align 2
	.weak	_ZNSt8_Rb_treeIPKN3hsm12StateFactoryESt4pairIKS3_S3_ESt10_Select1stIS6_ESt4lessIS3_ESaIS6_EE8_M_beginEv
	.type	_ZNSt8_Rb_treeIPKN3hsm12StateFactoryESt4pairIKS3_S3_ESt10_Select1stIS6_ESt4lessIS3_ESaIS6_EE8_M_beginEv, @function
_ZNSt8_Rb_treeIPKN3hsm12StateFactoryESt4pairIKS3_S3_ESt10_Select1stIS6_ESt4lessIS3_ESaIS6_EE8_M_beginEv:
.LFB3330:
	.cfi_startproc
	endbr64
	pushq	%rbp
	.cfi_def_cfa_offset 16
	.cfi_offset 6, -16
	movq	%rsp, %rbp
	.cfi_def_cfa_register 6
	subq	$16, %rsp
	movq	%rdi, -8(%rbp)
	movq	-8(%rbp), %rax
	movq	%rax, %rdi
	call	_ZNKSt8_Rb_treeIPKN3hsm12StateFactoryESt4pairIKS3_S3_ESt10_Select1stIS6_ESt4lessIS3_ESaIS6_EE9_M_mbeginEv
	leave
	.cfi_def_cfa 7, 8
	ret
	.cfi_endproc
.LFE3330:
	.size	_ZNSt8_Rb_treeIPKN3hsm12StateFactoryESt4pairIKS3_S3_ESt10_Select1stIS6_ESt4lessIS3_ESaIS6_EE8_M_beginEv, .-_ZNSt8_Rb_treeIPKN3hsm12StateFactoryESt4pairIKS3_S3_ESt10_Select1stIS6_ESt4lessIS3_ESaIS6_EE8_M_beginEv
	.section	.text._ZNK9__gnu_cxx17__normal_iteratorIPPN3hsm5StateESt6vectorIS3_SaIS3_EEE4baseEv,"axG",@progbits,_ZNK9__gnu_cxx17__normal_iteratorIPPN3hsm5StateESt6vectorIS3_SaIS3_EEE4baseEv,comdat
	.align 2
	.weak	_ZNK9__gnu_cxx17__normal_iteratorIPPN3hsm5StateESt6vectorIS3_SaIS3_EEE4baseEv
	.type	_ZNK9__gnu_cxx17__normal_iteratorIPPN3hsm5StateESt6vectorIS3_SaIS3_EEE4baseEv, @function
_ZNK9__gnu_cxx17__normal_iteratorIPPN3hsm5StateESt6vectorIS3_SaIS3_EEE4baseEv:
.LFB3339:
	.cfi_startproc
	endbr64
	pushq	%rbp
	.cfi_def_cfa_offset 16
	.cfi_offset 6, -16
	movq	%rsp, %rbp
	.cfi_def_cfa_register 6
	movq	%rdi, -8(%rbp)
	movq	-8(%rbp), %rax
	popq	%rbp
	.cfi_def_cfa 7, 8
	ret
	.cfi_endproc
.LFE3339:
	.size	_ZNK9__gnu_cxx17__normal_iteratorIPPN3hsm5StateESt6vectorIS3_SaIS3_EEE4baseEv, .-_ZNK9__gnu_cxx17__normal_iteratorIPPN3hsm5StateESt6vectorIS3_SaIS3_EEE4baseEv
	.section	.text._ZNK9__gnu_cxx17__normal_iteratorIPPN3hsm5StateESt6vectorIS3_SaIS3_EEEmiEl,"axG",@progbits,_ZNK9__gnu_cxx17__normal_iteratorIPPN3hsm5StateESt6vectorIS3_SaIS3_EEEmiEl,comdat
	.align 2
	.weak	_ZNK9__gnu_cxx17__normal_iteratorIPPN3hsm5StateESt6vectorIS3_SaIS3_EEEmiEl
	.type	_ZNK9__gnu_cxx17__normal_iteratorIPPN3hsm5StateESt6vectorIS3_SaIS3_EEEmiEl, @function
_ZNK9__gnu_cxx17__normal_iteratorIPPN3hsm5StateESt6vectorIS3_SaIS3_EEEmiEl:
.LFB3340:
	.cfi_startproc
	endbr64
	pushq	%rbp
	.cfi_def_cfa_offset 16
	.cfi_offset 6, -16
	movq	%rsp, %rbp
	.cfi_def_cfa_register 6
	subq	$48, %rsp
	movq	%rdi, -40(%rbp)
	movq	%rsi, -48(%rbp)
	movq	%fs:40, %rax
	movq	%rax, -8(%rbp)
	xorl	%eax, %eax
	movq	-40(%rbp), %rax
	movq	(%rax), %rdx
	movq	-48(%rbp), %rax
	salq	$3, %rax
	negq	%rax
	addq	%rdx, %rax
	movq	%rax, -24(%rbp)
	leaq	-24(%rbp), %rdx
	leaq	-16(%rbp), %rax
	movq	%rdx, %rsi
	movq	%rax, %rdi
	call	_ZN9__gnu_cxx17__normal_iteratorIPPN3hsm5StateESt6vectorIS3_SaIS3_EEEC1ERKS4_
	movq	-16(%rbp), %rax
	movq	-8(%rbp), %rdx
	subq	%fs:40, %rdx
	je	.L309
	call	__stack_chk_fail@PLT
.L309:
	leave
	.cfi_def_cfa 7, 8
	ret
	.cfi_endproc
.LFE3340:
	.size	_ZNK9__gnu_cxx17__normal_iteratorIPPN3hsm5StateESt6vectorIS3_SaIS3_EEEmiEl, .-_ZNK9__gnu_cxx17__normal_iteratorIPPN3hsm5StateESt6vectorIS3_SaIS3_EEEmiEl
	.section	.rodata
	.align 8
.LC35:
	.string	"vector::_M_range_check: __n (which is %zu) >= this->size() (which is %zu)"
	.section	.text._ZNKSt6vectorIPN3hsm5StateESaIS2_EE14_M_range_checkEm,"axG",@progbits,_ZNKSt6vectorIPN3hsm5StateESaIS2_EE14_M_range_checkEm,comdat
	.align 2
	.weak	_ZNKSt6vectorIPN3hsm5StateESaIS2_EE14_M_range_checkEm
	.type	_ZNKSt6vectorIPN3hsm5StateESaIS2_EE14_M_range_checkEm, @function
_ZNKSt6vectorIPN3hsm5StateESaIS2_EE14_M_range_checkEm:
.LFB3341:
	.cfi_startproc
	endbr64
	pushq	%rbp
	.cfi_def_cfa_offset 16
	.cfi_offset 6, -16
	movq	%rsp, %rbp
	.cfi_def_cfa_register 6
	subq	$16, %rsp
	movq	%rdi, -8(%rbp)
	movq	%rsi, -16(%rbp)
	movq	-8(%rbp), %rax
	movq	%rax, %rdi
	call	_ZNKSt6vectorIPN3hsm5StateESaIS2_EE4sizeEv
	cmpq	%rax, -16(%rbp)
	setnb	%al
	testb	%al, %al
	je	.L312
	movq	-8(%rbp), %rax
	movq	%rax, %rdi
	call	_ZNKSt6vectorIPN3hsm5StateESaIS2_EE4sizeEv
	movq	%rax, %rdx
	movq	-16(%rbp), %rax
	movq	%rax, %rsi
	leaq	.LC35(%rip), %rax
	movq	%rax, %rdi
	movl	$0, %eax
	call	_ZSt24__throw_out_of_range_fmtPKcz@PLT
.L312:
	nop
	leave
	.cfi_def_cfa 7, 8
	ret
	.cfi_endproc
.LFE3341:
	.size	_ZNKSt6vectorIPN3hsm5StateESaIS2_EE14_M_range_checkEm, .-_ZNKSt6vectorIPN3hsm5StateESaIS2_EE14_M_range_checkEm
	.section	.text._ZNSt16allocator_traitsISaIPN3hsm5StateEEE9constructIS2_JRKS2_EEEvRS3_PT_DpOT0_,"axG",@progbits,_ZNSt16allocator_traitsISaIPN3hsm5StateEEE9constructIS2_JRKS2_EEEvRS3_PT_DpOT0_,comdat
	.weak	_ZNSt16allocator_traitsISaIPN3hsm5StateEEE9constructIS2_JRKS2_EEEvRS3_PT_DpOT0_
	.type	_ZNSt16allocator_traitsISaIPN3hsm5StateEEE9constructIS2_JRKS2_EEEvRS3_PT_DpOT0_, @function
_ZNSt16allocator_traitsISaIPN3hsm5StateEEE9constructIS2_JRKS2_EEEvRS3_PT_DpOT0_:
.LFB3342:
	.cfi_startproc
	endbr64
	pushq	%rbp
	.cfi_def_cfa_offset 16
	.cfi_offset 6, -16
	movq	%rsp, %rbp
	.cfi_def_cfa_register 6
	subq	$32, %rsp
	movq	%rdi, -8(%rbp)
	movq	%rsi, -16(%rbp)
	movq	%rdx, -24(%rbp)
	movq	-24(%rbp), %rax
	movq	%rax, %rdi
	call	_ZSt7forwardIRKPN3hsm5StateEEOT_RNSt16remove_referenceIS5_E4typeE
	movq	%rax, %rdx
	movq	-16(%rbp), %rcx
	movq	-8(%rbp), %rax
	movq	%rcx, %rsi
	movq	%rax, %rdi
	call	_ZN9__gnu_cxx13new_allocatorIPN3hsm5StateEE9constructIS3_JRKS3_EEEvPT_DpOT0_
	nop
	leave
	.cfi_def_cfa 7, 8
	ret
	.cfi_endproc
.LFE3342:
	.size	_ZNSt16allocator_traitsISaIPN3hsm5StateEEE9constructIS2_JRKS2_EEEvRS3_PT_DpOT0_, .-_ZNSt16allocator_traitsISaIPN3hsm5StateEEE9constructIS2_JRKS2_EEEvRS3_PT_DpOT0_
	.section	.text._ZNSt6vectorIPN3hsm5StateESaIS2_EE15_S_use_relocateEv,"axG",@progbits,_ZNSt6vectorIPN3hsm5StateESaIS2_EE15_S_use_relocateEv,comdat
	.weak	_ZNSt6vectorIPN3hsm5StateESaIS2_EE15_S_use_relocateEv
	.type	_ZNSt6vectorIPN3hsm5StateESaIS2_EE15_S_use_relocateEv, @function
_ZNSt6vectorIPN3hsm5StateESaIS2_EE15_S_use_relocateEv:
.LFB3344:
	.cfi_startproc
	endbr64
	pushq	%rbp
	.cfi_def_cfa_offset 16
	.cfi_offset 6, -16
	movq	%rsp, %rbp
	.cfi_def_cfa_register 6
	subq	$16, %rsp
	movq	%fs:40, %rax
	movq	%rax, -8(%rbp)
	xorl	%eax, %eax
	call	_ZNSt6vectorIPN3hsm5StateESaIS2_EE19_S_nothrow_relocateESt17integral_constantIbLb1EE
	movq	-8(%rbp), %rdx
	subq	%fs:40, %rdx
	je	.L316
	call	__stack_chk_fail@PLT
.L316:
	leave
	.cfi_def_cfa 7, 8
	ret
	.cfi_endproc
.LFE3344:
	.size	_ZNSt6vectorIPN3hsm5StateESaIS2_EE15_S_use_relocateEv, .-_ZNSt6vectorIPN3hsm5StateESaIS2_EE15_S_use_relocateEv
	.section	.text._ZNSt6vectorIPN3hsm5StateESaIS2_EE19_S_nothrow_relocateESt17integral_constantIbLb1EE,"axG",@progbits,_ZNSt6vectorIPN3hsm5StateESaIS2_EE19_S_nothrow_relocateESt17integral_constantIbLb1EE,comdat
	.weak	_ZNSt6vectorIPN3hsm5StateESaIS2_EE19_S_nothrow_relocateESt17integral_constantIbLb1EE
	.type	_ZNSt6vectorIPN3hsm5StateESaIS2_EE19_S_nothrow_relocateESt17integral_constantIbLb1EE, @function
_ZNSt6vectorIPN3hsm5StateESaIS2_EE19_S_nothrow_relocateESt17integral_constantIbLb1EE:
.LFB3345:
	.cfi_startproc
	endbr64
	pushq	%rbp
	.cfi_def_cfa_offset 16
	.cfi_offset 6, -16
	movq	%rsp, %rbp
	.cfi_def_cfa_register 6
	movl	$1, %eax
	popq	%rbp
	.cfi_def_cfa 7, 8
	ret
	.cfi_endproc
.LFE3345:
	.size	_ZNSt6vectorIPN3hsm5StateESaIS2_EE19_S_nothrow_relocateESt17integral_constantIbLb1EE, .-_ZNSt6vectorIPN3hsm5StateESaIS2_EE19_S_nothrow_relocateESt17integral_constantIbLb1EE
	.section	.rodata
.LC36:
	.string	"vector::_M_realloc_insert"
	.section	.text._ZNSt6vectorIPN3hsm5StateESaIS2_EE17_M_realloc_insertIJRKS2_EEEvN9__gnu_cxx17__normal_iteratorIPS2_S4_EEDpOT_,"axG",@progbits,_ZNSt6vectorIPN3hsm5StateESaIS2_EE17_M_realloc_insertIJRKS2_EEEvN9__gnu_cxx17__normal_iteratorIPS2_S4_EEDpOT_,comdat
	.align 2
	.weak	_ZNSt6vectorIPN3hsm5StateESaIS2_EE17_M_realloc_insertIJRKS2_EEEvN9__gnu_cxx17__normal_iteratorIPS2_S4_EEDpOT_
	.type	_ZNSt6vectorIPN3hsm5StateESaIS2_EE17_M_realloc_insertIJRKS2_EEEvN9__gnu_cxx17__normal_iteratorIPS2_S4_EEDpOT_, @function
_ZNSt6vectorIPN3hsm5StateESaIS2_EE17_M_realloc_insertIJRKS2_EEEvN9__gnu_cxx17__normal_iteratorIPS2_S4_EEDpOT_:
.LFB3343:
	.cfi_startproc
	.cfi_personality 0x9b,DW.ref.__gxx_personality_v0
	.cfi_lsda 0x1b,.LLSDA3343
	endbr64
	pushq	%rbp
	.cfi_def_cfa_offset 16
	.cfi_offset 6, -16
	movq	%rsp, %rbp
	.cfi_def_cfa_register 6
	pushq	%rbx
	subq	$104, %rsp
	.cfi_offset 3, -24
	movq	%rdi, -88(%rbp)
	movq	%rsi, -96(%rbp)
	movq	%rdx, -104(%rbp)
	movq	%fs:40, %rax
	movq	%rax, -24(%rbp)
	xorl	%eax, %eax
	movq	-88(%rbp), %rax
	leaq	.LC36(%rip), %rdx
	movl	$1, %esi
	movq	%rax, %rdi
.LEHB33:
	call	_ZNKSt6vectorIPN3hsm5StateESaIS2_EE12_M_check_lenEmPKc
	movq	%rax, -64(%rbp)
	movq	-88(%rbp), %rax
	movq	(%rax), %rax
	movq	%rax, -56(%rbp)
	movq	-88(%rbp), %rax
	movq	8(%rax), %rax
	movq	%rax, -48(%rbp)
	movq	-88(%rbp), %rax
	movq	%rax, %rdi
	call	_ZNSt6vectorIPN3hsm5StateESaIS2_EE5beginEv
	movq	%rax, -80(%rbp)
	leaq	-80(%rbp), %rdx
	leaq	-96(%rbp), %rax
	movq	%rdx, %rsi
	movq	%rax, %rdi
	call	_ZN9__gnu_cxxmiIPPN3hsm5StateESt6vectorIS3_SaIS3_EEEENS_17__normal_iteratorIT_T0_E15difference_typeERKSB_SE_
	movq	%rax, -40(%rbp)
	movq	-88(%rbp), %rax
	movq	-64(%rbp), %rdx
	movq	%rdx, %rsi
	movq	%rax, %rdi
	call	_ZNSt12_Vector_baseIPN3hsm5StateESaIS2_EE11_M_allocateEm
.LEHE33:
	movq	%rax, -32(%rbp)
	movq	-32(%rbp), %rax
	movq	%rax, -72(%rbp)
	movq	-104(%rbp), %rax
	movq	%rax, %rdi
	call	_ZSt7forwardIRKPN3hsm5StateEEOT_RNSt16remove_referenceIS5_E4typeE
	movq	%rax, %rdx
	movq	-40(%rbp), %rax
	leaq	0(,%rax,8), %rcx
	movq	-32(%rbp), %rax
	addq	%rax, %rcx
	movq	-88(%rbp), %rax
	movq	%rcx, %rsi
	movq	%rax, %rdi
	call	_ZNSt16allocator_traitsISaIPN3hsm5StateEEE9constructIS2_JRKS2_EEEvRS3_PT_DpOT0_
	movq	$0, -72(%rbp)
	call	_ZNSt6vectorIPN3hsm5StateESaIS2_EE15_S_use_relocateEv
	testb	%al, %al
	je	.L320
	movq	-88(%rbp), %rax
	movq	%rax, %rdi
	call	_ZNSt12_Vector_baseIPN3hsm5StateESaIS2_EE19_M_get_Tp_allocatorEv
	movq	%rax, %rbx
	leaq	-96(%rbp), %rax
	movq	%rax, %rdi
	call	_ZNK9__gnu_cxx17__normal_iteratorIPPN3hsm5StateESt6vectorIS3_SaIS3_EEE4baseEv
	movq	(%rax), %rsi
	movq	-32(%rbp), %rdx
	movq	-56(%rbp), %rax
	movq	%rbx, %rcx
	movq	%rax, %rdi
	call	_ZNSt6vectorIPN3hsm5StateESaIS2_EE11_S_relocateEPS2_S5_S5_RS3_
	movq	%rax, -72(%rbp)
	addq	$8, -72(%rbp)
	movq	-88(%rbp), %rax
	movq	%rax, %rdi
	call	_ZNSt12_Vector_baseIPN3hsm5StateESaIS2_EE19_M_get_Tp_allocatorEv
	movq	%rax, %rbx
	leaq	-96(%rbp), %rax
	movq	%rax, %rdi
	call	_ZNK9__gnu_cxx17__normal_iteratorIPPN3hsm5StateESt6vectorIS3_SaIS3_EEE4baseEv
	movq	(%rax), %rax
	movq	-72(%rbp), %rdx
	movq	-48(%rbp), %rsi
	movq	%rbx, %rcx
	movq	%rax, %rdi
	call	_ZNSt6vectorIPN3hsm5StateESaIS2_EE11_S_relocateEPS2_S5_S5_RS3_
	movq	%rax, -72(%rbp)
	jmp	.L321
.L320:
	movq	-88(%rbp), %rax
	movq	%rax, %rdi
	call	_ZNSt12_Vector_baseIPN3hsm5StateESaIS2_EE19_M_get_Tp_allocatorEv
	movq	%rax, %rbx
	leaq	-96(%rbp), %rax
	movq	%rax, %rdi
	call	_ZNK9__gnu_cxx17__normal_iteratorIPPN3hsm5StateESt6vectorIS3_SaIS3_EEE4baseEv
	movq	(%rax), %rsi
	movq	-32(%rbp), %rdx
	movq	-56(%rbp), %rax
	movq	%rbx, %rcx
	movq	%rax, %rdi
.LEHB34:
	call	_ZSt34__uninitialized_move_if_noexcept_aIPPN3hsm5StateES3_SaIS2_EET0_T_S6_S5_RT1_
	movq	%rax, -72(%rbp)
	addq	$8, -72(%rbp)
	movq	-88(%rbp), %rax
	movq	%rax, %rdi
	call	_ZNSt12_Vector_baseIPN3hsm5StateESaIS2_EE19_M_get_Tp_allocatorEv
	movq	%rax, %rbx
	leaq	-96(%rbp), %rax
	movq	%rax, %rdi
	call	_ZNK9__gnu_cxx17__normal_iteratorIPPN3hsm5StateESt6vectorIS3_SaIS3_EEE4baseEv
	movq	(%rax), %rax
	movq	-72(%rbp), %rdx
	movq	-48(%rbp), %rsi
	movq	%rbx, %rcx
	movq	%rax, %rdi
	call	_ZSt34__uninitialized_move_if_noexcept_aIPPN3hsm5StateES3_SaIS2_EET0_T_S6_S5_RT1_
.LEHE34:
	movq	%rax, -72(%rbp)
.L321:
	call	_ZNSt6vectorIPN3hsm5StateESaIS2_EE15_S_use_relocateEv
	xorl	$1, %eax
	testb	%al, %al
	je	.L322
	movq	-88(%rbp), %rax
	movq	%rax, %rdi
	call	_ZNSt12_Vector_baseIPN3hsm5StateESaIS2_EE19_M_get_Tp_allocatorEv
	movq	%rax, %rdx
	movq	-48(%rbp), %rcx
	movq	-56(%rbp), %rax
	movq	%rcx, %rsi
	movq	%rax, %rdi
.LEHB35:
	call	_ZSt8_DestroyIPPN3hsm5StateES2_EvT_S4_RSaIT0_E
.L322:
	movq	-88(%rbp), %rax
	movq	-88(%rbp), %rdx
	movq	16(%rdx), %rdx
	subq	-56(%rbp), %rdx
	sarq	$3, %rdx
	movq	-56(%rbp), %rcx
	movq	%rcx, %rsi
	movq	%rax, %rdi
	call	_ZNSt12_Vector_baseIPN3hsm5StateESaIS2_EE13_M_deallocateEPS2_m
.LEHE35:
	movq	-88(%rbp), %rax
	movq	-32(%rbp), %rdx
	movq	%rdx, (%rax)
	movq	-88(%rbp), %rax
	movq	-72(%rbp), %rdx
	movq	%rdx, 8(%rax)
	movq	-64(%rbp), %rax
	leaq	0(,%rax,8), %rdx
	movq	-32(%rbp), %rax
	addq	%rax, %rdx
	movq	-88(%rbp), %rax
	movq	%rdx, 16(%rax)
	nop
	movq	-24(%rbp), %rax
	subq	%fs:40, %rax
	je	.L327
	jmp	.L330
.L328:
	endbr64
	movq	%rax, %rdi
	call	__cxa_begin_catch@PLT
	cmpq	$0, -72(%rbp)
	jne	.L324
	movq	-40(%rbp), %rax
	leaq	0(,%rax,8), %rdx
	movq	-32(%rbp), %rax
	addq	%rax, %rdx
	movq	-88(%rbp), %rax
	movq	%rdx, %rsi
	movq	%rax, %rdi
	call	_ZNSt16allocator_traitsISaIPN3hsm5StateEEE7destroyIS2_EEvRS3_PT_
	jmp	.L325
.L324:
	movq	-88(%rbp), %rax
	movq	%rax, %rdi
	call	_ZNSt12_Vector_baseIPN3hsm5StateESaIS2_EE19_M_get_Tp_allocatorEv
	movq	%rax, %rdx
	movq	-72(%rbp), %rcx
	movq	-32(%rbp), %rax
	movq	%rcx, %rsi
	movq	%rax, %rdi
.LEHB36:
	call	_ZSt8_DestroyIPPN3hsm5StateES2_EvT_S4_RSaIT0_E
.L325:
	movq	-88(%rbp), %rax
	movq	-64(%rbp), %rdx
	movq	-32(%rbp), %rcx
	movq	%rcx, %rsi
	movq	%rax, %rdi
	call	_ZNSt12_Vector_baseIPN3hsm5StateESaIS2_EE13_M_deallocateEPS2_m
	call	__cxa_rethrow@PLT
.LEHE36:
.L329:
	endbr64
	movq	%rax, %rbx
	call	__cxa_end_catch@PLT
	movq	%rbx, %rax
	movq	%rax, %rdi
.LEHB37:
	call	_Unwind_Resume@PLT
.LEHE37:
.L330:
	call	__stack_chk_fail@PLT
.L327:
	movq	-8(%rbp), %rbx
	leave
	.cfi_def_cfa 7, 8
	ret
	.cfi_endproc
.LFE3343:
	.section	.gcc_except_table
	.align 4
.LLSDA3343:
	.byte	0xff
	.byte	0x9b
	.uleb128 .LLSDATT3343-.LLSDATTD3343
.LLSDATTD3343:
	.byte	0x1
	.uleb128 .LLSDACSE3343-.LLSDACSB3343
.LLSDACSB3343:
	.uleb128 .LEHB33-.LFB3343
	.uleb128 .LEHE33-.LEHB33
	.uleb128 0
	.uleb128 0
	.uleb128 .LEHB34-.LFB3343
	.uleb128 .LEHE34-.LEHB34
	.uleb128 .L328-.LFB3343
	.uleb128 0x1
	.uleb128 .LEHB35-.LFB3343
	.uleb128 .LEHE35-.LEHB35
	.uleb128 0
	.uleb128 0
	.uleb128 .LEHB36-.LFB3343
	.uleb128 .LEHE36-.LEHB36
	.uleb128 .L329-.LFB3343
	.uleb128 0
	.uleb128 .LEHB37-.LFB3343
	.uleb128 .LEHE37-.LEHB37
	.uleb128 0
	.uleb128 0
.LLSDACSE3343:
	.byte	0x1
	.byte	0
	.align 4
	.long	0

.LLSDATT3343:
	.section	.text._ZNSt6vectorIPN3hsm5StateESaIS2_EE17_M_realloc_insertIJRKS2_EEEvN9__gnu_cxx17__normal_iteratorIPS2_S4_EEDpOT_,"axG",@progbits,_ZNSt6vectorIPN3hsm5StateESaIS2_EE17_M_realloc_insertIJRKS2_EEEvN9__gnu_cxx17__normal_iteratorIPS2_S4_EEDpOT_,comdat
	.size	_ZNSt6vectorIPN3hsm5StateESaIS2_EE17_M_realloc_insertIJRKS2_EEEvN9__gnu_cxx17__normal_iteratorIPS2_S4_EEDpOT_, .-_ZNSt6vectorIPN3hsm5StateESaIS2_EE17_M_realloc_insertIJRKS2_EEEvN9__gnu_cxx17__normal_iteratorIPS2_S4_EEDpOT_
	.section	.text._ZNSt16allocator_traitsISaIPN3hsm5StateEEE7destroyIS2_EEvRS3_PT_,"axG",@progbits,_ZNSt16allocator_traitsISaIPN3hsm5StateEEE7destroyIS2_EEvRS3_PT_,comdat
	.weak	_ZNSt16allocator_traitsISaIPN3hsm5StateEEE7destroyIS2_EEvRS3_PT_
	.type	_ZNSt16allocator_traitsISaIPN3hsm5StateEEE7destroyIS2_EEvRS3_PT_, @function
_ZNSt16allocator_traitsISaIPN3hsm5StateEEE7destroyIS2_EEvRS3_PT_:
.LFB3347:
	.cfi_startproc
	endbr64
	pushq	%rbp
	.cfi_def_cfa_offset 16
	.cfi_offset 6, -16
	movq	%rsp, %rbp
	.cfi_def_cfa_register 6
	subq	$16, %rsp
	movq	%rdi, -8(%rbp)
	movq	%rsi, -16(%rbp)
	movq	-16(%rbp), %rdx
	movq	-8(%rbp), %rax
	movq	%rdx, %rsi
	movq	%rax, %rdi
	call	_ZN9__gnu_cxx13new_allocatorIPN3hsm5StateEE7destroyIS3_EEvPT_
	nop
	leave
	.cfi_def_cfa 7, 8
	ret
	.cfi_endproc
.LFE3347:
	.size	_ZNSt16allocator_traitsISaIPN3hsm5StateEEE7destroyIS2_EEvRS3_PT_, .-_ZNSt16allocator_traitsISaIPN3hsm5StateEEE7destroyIS2_EEvRS3_PT_
	.weak	_ZZN3hsm15GetStateFactoryIN8MyStates6SecondEEERKNS_12StateFactoryEvE8instance
	.section	.bss._ZZN3hsm15GetStateFactoryIN8MyStates6SecondEEERKNS_12StateFactoryEvE8instance,"awG",@nobits,_ZZN3hsm15GetStateFactoryIN8MyStates6SecondEEERKNS_12StateFactoryEvE8instance,comdat
	.align 8
	.type	_ZZN3hsm15GetStateFactoryIN8MyStates6SecondEEERKNS_12StateFactoryEvE8instance, @gnu_unique_object
	.size	_ZZN3hsm15GetStateFactoryIN8MyStates6SecondEEERKNS_12StateFactoryEvE8instance, 8
_ZZN3hsm15GetStateFactoryIN8MyStates6SecondEEERKNS_12StateFactoryEvE8instance:
	.zero	8
	.weak	_ZGVZN3hsm15GetStateFactoryIN8MyStates6SecondEEERKNS_12StateFactoryEvE8instance
	.section	.bss._ZGVZN3hsm15GetStateFactoryIN8MyStates6SecondEEERKNS_12StateFactoryEvE8instance,"awG",@nobits,_ZGVZN3hsm15GetStateFactoryIN8MyStates6SecondEEERKNS_12StateFactoryEvE8instance,comdat
	.align 8
	.type	_ZGVZN3hsm15GetStateFactoryIN8MyStates6SecondEEERKNS_12StateFactoryEvE8instance, @gnu_unique_object
	.size	_ZGVZN3hsm15GetStateFactoryIN8MyStates6SecondEEERKNS_12StateFactoryEvE8instance, 8
_ZGVZN3hsm15GetStateFactoryIN8MyStates6SecondEEERKNS_12StateFactoryEvE8instance:
	.zero	8
	.section	.text._ZN3hsm15GetStateFactoryIN8MyStates6SecondEEERKNS_12StateFactoryEv,"axG",@progbits,_ZN3hsm15GetStateFactoryIN8MyStates6SecondEEERKNS_12StateFactoryEv,comdat
	.weak	_ZN3hsm15GetStateFactoryIN8MyStates6SecondEEERKNS_12StateFactoryEv
	.type	_ZN3hsm15GetStateFactoryIN8MyStates6SecondEEERKNS_12StateFactoryEv, @function
_ZN3hsm15GetStateFactoryIN8MyStates6SecondEEERKNS_12StateFactoryEv:
.LFB3348:
	.cfi_startproc
	endbr64
	pushq	%rbp
	.cfi_def_cfa_offset 16
	.cfi_offset 6, -16
	movq	%rsp, %rbp
	.cfi_def_cfa_register 6
	movzbl	_ZGVZN3hsm15GetStateFactoryIN8MyStates6SecondEEERKNS_12StateFactoryEvE8instance(%rip), %eax
	testb	%al, %al
	sete	%al
	testb	%al, %al
	je	.L333
	leaq	_ZGVZN3hsm15GetStateFactoryIN8MyStates6SecondEEERKNS_12StateFactoryEvE8instance(%rip), %rax
	movq	%rax, %rdi
	call	__cxa_guard_acquire@PLT
	testl	%eax, %eax
	setne	%al
	testb	%al, %al
	je	.L333
	leaq	_ZZN3hsm15GetStateFactoryIN8MyStates6SecondEEERKNS_12StateFactoryEvE8instance(%rip), %rax
	movq	%rax, %rdi
	call	_ZN3hsm20ConcreteStateFactoryIN8MyStates6SecondEEC1Ev
	leaq	_ZGVZN3hsm15GetStateFactoryIN8MyStates6SecondEEERKNS_12StateFactoryEvE8instance(%rip), %rax
	movq	%rax, %rdi
	call	__cxa_guard_release@PLT
.L333:
	leaq	_ZZN3hsm15GetStateFactoryIN8MyStates6SecondEEERKNS_12StateFactoryEvE8instance(%rip), %rax
	popq	%rbp
	.cfi_def_cfa 7, 8
	ret
	.cfi_endproc
.LFE3348:
	.size	_ZN3hsm15GetStateFactoryIN8MyStates6SecondEEERKNS_12StateFactoryEv, .-_ZN3hsm15GetStateFactoryIN8MyStates6SecondEEERKNS_12StateFactoryEv
	.weak	_ZZN3hsm15GetStateFactoryIN8MyStates5ThirdEEERKNS_12StateFactoryEvE8instance
	.section	.bss._ZZN3hsm15GetStateFactoryIN8MyStates5ThirdEEERKNS_12StateFactoryEvE8instance,"awG",@nobits,_ZZN3hsm15GetStateFactoryIN8MyStates5ThirdEEERKNS_12StateFactoryEvE8instance,comdat
	.align 8
	.type	_ZZN3hsm15GetStateFactoryIN8MyStates5ThirdEEERKNS_12StateFactoryEvE8instance, @gnu_unique_object
	.size	_ZZN3hsm15GetStateFactoryIN8MyStates5ThirdEEERKNS_12StateFactoryEvE8instance, 8
_ZZN3hsm15GetStateFactoryIN8MyStates5ThirdEEERKNS_12StateFactoryEvE8instance:
	.zero	8
	.weak	_ZGVZN3hsm15GetStateFactoryIN8MyStates5ThirdEEERKNS_12StateFactoryEvE8instance
	.section	.bss._ZGVZN3hsm15GetStateFactoryIN8MyStates5ThirdEEERKNS_12StateFactoryEvE8instance,"awG",@nobits,_ZGVZN3hsm15GetStateFactoryIN8MyStates5ThirdEEERKNS_12StateFactoryEvE8instance,comdat
	.align 8
	.type	_ZGVZN3hsm15GetStateFactoryIN8MyStates5ThirdEEERKNS_12StateFactoryEvE8instance, @gnu_unique_object
	.size	_ZGVZN3hsm15GetStateFactoryIN8MyStates5ThirdEEERKNS_12StateFactoryEvE8instance, 8
_ZGVZN3hsm15GetStateFactoryIN8MyStates5ThirdEEERKNS_12StateFactoryEvE8instance:
	.zero	8
	.section	.text._ZN3hsm15GetStateFactoryIN8MyStates5ThirdEEERKNS_12StateFactoryEv,"axG",@progbits,_ZN3hsm15GetStateFactoryIN8MyStates5ThirdEEERKNS_12StateFactoryEv,comdat
	.weak	_ZN3hsm15GetStateFactoryIN8MyStates5ThirdEEERKNS_12StateFactoryEv
	.type	_ZN3hsm15GetStateFactoryIN8MyStates5ThirdEEERKNS_12StateFactoryEv, @function
_ZN3hsm15GetStateFactoryIN8MyStates5ThirdEEERKNS_12StateFactoryEv:
.LFB3349:
	.cfi_startproc
	endbr64
	pushq	%rbp
	.cfi_def_cfa_offset 16
	.cfi_offset 6, -16
	movq	%rsp, %rbp
	.cfi_def_cfa_register 6
	movzbl	_ZGVZN3hsm15GetStateFactoryIN8MyStates5ThirdEEERKNS_12StateFactoryEvE8instance(%rip), %eax
	testb	%al, %al
	sete	%al
	testb	%al, %al
	je	.L336
	leaq	_ZGVZN3hsm15GetStateFactoryIN8MyStates5ThirdEEERKNS_12StateFactoryEvE8instance(%rip), %rax
	movq	%rax, %rdi
	call	__cxa_guard_acquire@PLT
	testl	%eax, %eax
	setne	%al
	testb	%al, %al
	je	.L336
	leaq	_ZZN3hsm15GetStateFactoryIN8MyStates5ThirdEEERKNS_12StateFactoryEvE8instance(%rip), %rax
	movq	%rax, %rdi
	call	_ZN3hsm20ConcreteStateFactoryIN8MyStates5ThirdEEC1Ev
	leaq	_ZGVZN3hsm15GetStateFactoryIN8MyStates5ThirdEEERKNS_12StateFactoryEvE8instance(%rip), %rax
	movq	%rax, %rdi
	call	__cxa_guard_release@PLT
.L336:
	leaq	_ZZN3hsm15GetStateFactoryIN8MyStates5ThirdEEERKNS_12StateFactoryEvE8instance(%rip), %rax
	popq	%rbp
	.cfi_def_cfa 7, 8
	ret
	.cfi_endproc
.LFE3349:
	.size	_ZN3hsm15GetStateFactoryIN8MyStates5ThirdEEERKNS_12StateFactoryEv, .-_ZN3hsm15GetStateFactoryIN8MyStates5ThirdEEERKNS_12StateFactoryEv
	.weak	_ZZN3hsm15GetStateFactoryIN8MyStates5FirstEEERKNS_12StateFactoryEvE8instance
	.section	.bss._ZZN3hsm15GetStateFactoryIN8MyStates5FirstEEERKNS_12StateFactoryEvE8instance,"awG",@nobits,_ZZN3hsm15GetStateFactoryIN8MyStates5FirstEEERKNS_12StateFactoryEvE8instance,comdat
	.align 8
	.type	_ZZN3hsm15GetStateFactoryIN8MyStates5FirstEEERKNS_12StateFactoryEvE8instance, @gnu_unique_object
	.size	_ZZN3hsm15GetStateFactoryIN8MyStates5FirstEEERKNS_12StateFactoryEvE8instance, 8
_ZZN3hsm15GetStateFactoryIN8MyStates5FirstEEERKNS_12StateFactoryEvE8instance:
	.zero	8
	.weak	_ZGVZN3hsm15GetStateFactoryIN8MyStates5FirstEEERKNS_12StateFactoryEvE8instance
	.section	.bss._ZGVZN3hsm15GetStateFactoryIN8MyStates5FirstEEERKNS_12StateFactoryEvE8instance,"awG",@nobits,_ZGVZN3hsm15GetStateFactoryIN8MyStates5FirstEEERKNS_12StateFactoryEvE8instance,comdat
	.align 8
	.type	_ZGVZN3hsm15GetStateFactoryIN8MyStates5FirstEEERKNS_12StateFactoryEvE8instance, @gnu_unique_object
	.size	_ZGVZN3hsm15GetStateFactoryIN8MyStates5FirstEEERKNS_12StateFactoryEvE8instance, 8
_ZGVZN3hsm15GetStateFactoryIN8MyStates5FirstEEERKNS_12StateFactoryEvE8instance:
	.zero	8
	.section	.text._ZN3hsm15GetStateFactoryIN8MyStates5FirstEEERKNS_12StateFactoryEv,"axG",@progbits,_ZN3hsm15GetStateFactoryIN8MyStates5FirstEEERKNS_12StateFactoryEv,comdat
	.weak	_ZN3hsm15GetStateFactoryIN8MyStates5FirstEEERKNS_12StateFactoryEv
	.type	_ZN3hsm15GetStateFactoryIN8MyStates5FirstEEERKNS_12StateFactoryEv, @function
_ZN3hsm15GetStateFactoryIN8MyStates5FirstEEERKNS_12StateFactoryEv:
.LFB3350:
	.cfi_startproc
	endbr64
	pushq	%rbp
	.cfi_def_cfa_offset 16
	.cfi_offset 6, -16
	movq	%rsp, %rbp
	.cfi_def_cfa_register 6
	movzbl	_ZGVZN3hsm15GetStateFactoryIN8MyStates5FirstEEERKNS_12StateFactoryEvE8instance(%rip), %eax
	testb	%al, %al
	sete	%al
	testb	%al, %al
	je	.L339
	leaq	_ZGVZN3hsm15GetStateFactoryIN8MyStates5FirstEEERKNS_12StateFactoryEvE8instance(%rip), %rax
	movq	%rax, %rdi
	call	__cxa_guard_acquire@PLT
	testl	%eax, %eax
	setne	%al
	testb	%al, %al
	je	.L339
	leaq	_ZZN3hsm15GetStateFactoryIN8MyStates5FirstEEERKNS_12StateFactoryEvE8instance(%rip), %rax
	movq	%rax, %rdi
	call	_ZN3hsm20ConcreteStateFactoryIN8MyStates5FirstEEC1Ev
	leaq	_ZGVZN3hsm15GetStateFactoryIN8MyStates5FirstEEERKNS_12StateFactoryEvE8instance(%rip), %rax
	movq	%rax, %rdi
	call	__cxa_guard_release@PLT
.L339:
	leaq	_ZZN3hsm15GetStateFactoryIN8MyStates5FirstEEERKNS_12StateFactoryEvE8instance(%rip), %rax
	popq	%rbp
	.cfi_def_cfa 7, 8
	ret
	.cfi_endproc
.LFE3350:
	.size	_ZN3hsm15GetStateFactoryIN8MyStates5FirstEEERKNS_12StateFactoryEv, .-_ZN3hsm15GetStateFactoryIN8MyStates5FirstEEERKNS_12StateFactoryEv
	.section	.text._ZNSt6vectorIPN3hsm18StateValueResetterESaIS2_EE11_S_max_sizeERKS3_,"axG",@progbits,_ZNSt6vectorIPN3hsm18StateValueResetterESaIS2_EE11_S_max_sizeERKS3_,comdat
	.weak	_ZNSt6vectorIPN3hsm18StateValueResetterESaIS2_EE11_S_max_sizeERKS3_
	.type	_ZNSt6vectorIPN3hsm18StateValueResetterESaIS2_EE11_S_max_sizeERKS3_, @function
_ZNSt6vectorIPN3hsm18StateValueResetterESaIS2_EE11_S_max_sizeERKS3_:
.LFB3384:
	.cfi_startproc
	endbr64
	pushq	%rbp
	.cfi_def_cfa_offset 16
	.cfi_offset 6, -16
	movq	%rsp, %rbp
	.cfi_def_cfa_register 6
	subq	$48, %rsp
	movq	%rdi, -40(%rbp)
	movq	%fs:40, %rax
	movq	%rax, -8(%rbp)
	xorl	%eax, %eax
	movabsq	$1152921504606846975, %rax
	movq	%rax, -24(%rbp)
	movq	-40(%rbp), %rax
	movq	%rax, %rdi
	call	_ZNSt16allocator_traitsISaIPN3hsm18StateValueResetterEEE8max_sizeERKS3_
	movq	%rax, -16(%rbp)
	leaq	-16(%rbp), %rdx
	leaq	-24(%rbp), %rax
	movq	%rdx, %rsi
	movq	%rax, %rdi
	call	_ZSt3minImERKT_S2_S2_
	movq	(%rax), %rax
	movq	-8(%rbp), %rdx
	subq	%fs:40, %rdx
	je	.L343
	call	__stack_chk_fail@PLT
.L343:
	leave
	.cfi_def_cfa 7, 8
	ret
	.cfi_endproc
.LFE3384:
	.size	_ZNSt6vectorIPN3hsm18StateValueResetterESaIS2_EE11_S_max_sizeERKS3_, .-_ZNSt6vectorIPN3hsm18StateValueResetterESaIS2_EE11_S_max_sizeERKS3_
	.section	.text._ZNSaIPN3hsm18StateValueResetterEEC2ERKS2_,"axG",@progbits,_ZNSaIPN3hsm18StateValueResetterEEC5ERKS2_,comdat
	.align 2
	.weak	_ZNSaIPN3hsm18StateValueResetterEEC2ERKS2_
	.type	_ZNSaIPN3hsm18StateValueResetterEEC2ERKS2_, @function
_ZNSaIPN3hsm18StateValueResetterEEC2ERKS2_:
.LFB3386:
	.cfi_startproc
	endbr64
	pushq	%rbp
	.cfi_def_cfa_offset 16
	.cfi_offset 6, -16
	movq	%rsp, %rbp
	.cfi_def_cfa_register 6
	subq	$16, %rsp
	movq	%rdi, -8(%rbp)
	movq	%rsi, -16(%rbp)
	movq	-16(%rbp), %rdx
	movq	-8(%rbp), %rax
	movq	%rdx, %rsi
	movq	%rax, %rdi
	call	_ZN9__gnu_cxx13new_allocatorIPN3hsm18StateValueResetterEEC2ERKS4_
	nop
	leave
	.cfi_def_cfa 7, 8
	ret
	.cfi_endproc
.LFE3386:
	.size	_ZNSaIPN3hsm18StateValueResetterEEC2ERKS2_, .-_ZNSaIPN3hsm18StateValueResetterEEC2ERKS2_
	.weak	_ZNSaIPN3hsm18StateValueResetterEEC1ERKS2_
	.set	_ZNSaIPN3hsm18StateValueResetterEEC1ERKS2_,_ZNSaIPN3hsm18StateValueResetterEEC2ERKS2_
	.section	.text._ZNSt12_Vector_baseIPN3hsm18StateValueResetterESaIS2_EE12_Vector_implC2ERKS3_,"axG",@progbits,_ZNSt12_Vector_baseIPN3hsm18StateValueResetterESaIS2_EE12_Vector_implC5ERKS3_,comdat
	.align 2
	.weak	_ZNSt12_Vector_baseIPN3hsm18StateValueResetterESaIS2_EE12_Vector_implC2ERKS3_
	.type	_ZNSt12_Vector_baseIPN3hsm18StateValueResetterESaIS2_EE12_Vector_implC2ERKS3_, @function
_ZNSt12_Vector_baseIPN3hsm18StateValueResetterESaIS2_EE12_Vector_implC2ERKS3_:
.LFB3389:
	.cfi_startproc
	endbr64
	pushq	%rbp
	.cfi_def_cfa_offset 16
	.cfi_offset 6, -16
	movq	%rsp, %rbp
	.cfi_def_cfa_register 6
	subq	$16, %rsp
	movq	%rdi, -8(%rbp)
	movq	%rsi, -16(%rbp)
	movq	-16(%rbp), %rdx
	movq	-8(%rbp), %rax
	movq	%rdx, %rsi
	movq	%rax, %rdi
	call	_ZNSaIPN3hsm18StateValueResetterEEC2ERKS2_
	movq	-8(%rbp), %rax
	movq	%rax, %rdi
	call	_ZNSt12_Vector_baseIPN3hsm18StateValueResetterESaIS2_EE17_Vector_impl_dataC2Ev
	nop
	leave
	.cfi_def_cfa 7, 8
	ret
	.cfi_endproc
.LFE3389:
	.size	_ZNSt12_Vector_baseIPN3hsm18StateValueResetterESaIS2_EE12_Vector_implC2ERKS3_, .-_ZNSt12_Vector_baseIPN3hsm18StateValueResetterESaIS2_EE12_Vector_implC2ERKS3_
	.weak	_ZNSt12_Vector_baseIPN3hsm18StateValueResetterESaIS2_EE12_Vector_implC1ERKS3_
	.set	_ZNSt12_Vector_baseIPN3hsm18StateValueResetterESaIS2_EE12_Vector_implC1ERKS3_,_ZNSt12_Vector_baseIPN3hsm18StateValueResetterESaIS2_EE12_Vector_implC2ERKS3_
	.section	.text._ZNSt12_Vector_baseIPN3hsm18StateValueResetterESaIS2_EE17_M_create_storageEm,"axG",@progbits,_ZNSt12_Vector_baseIPN3hsm18StateValueResetterESaIS2_EE17_M_create_storageEm,comdat
	.align 2
	.weak	_ZNSt12_Vector_baseIPN3hsm18StateValueResetterESaIS2_EE17_M_create_storageEm
	.type	_ZNSt12_Vector_baseIPN3hsm18StateValueResetterESaIS2_EE17_M_create_storageEm, @function
_ZNSt12_Vector_baseIPN3hsm18StateValueResetterESaIS2_EE17_M_create_storageEm:
.LFB3391:
	.cfi_startproc
	endbr64
	pushq	%rbp
	.cfi_def_cfa_offset 16
	.cfi_offset 6, -16
	movq	%rsp, %rbp
	.cfi_def_cfa_register 6
	subq	$16, %rsp
	movq	%rdi, -8(%rbp)
	movq	%rsi, -16(%rbp)
	movq	-16(%rbp), %rdx
	movq	-8(%rbp), %rax
	movq	%rdx, %rsi
	movq	%rax, %rdi
	call	_ZNSt12_Vector_baseIPN3hsm18StateValueResetterESaIS2_EE11_M_allocateEm
	movq	-8(%rbp), %rdx
	movq	%rax, (%rdx)
	movq	-8(%rbp), %rax
	movq	(%rax), %rdx
	movq	-8(%rbp), %rax
	movq	%rdx, 8(%rax)
	movq	-8(%rbp), %rax
	movq	(%rax), %rdx
	movq	-16(%rbp), %rax
	salq	$3, %rax
	addq	%rax, %rdx
	movq	-8(%rbp), %rax
	movq	%rdx, 16(%rax)
	nop
	leave
	.cfi_def_cfa 7, 8
	ret
	.cfi_endproc
.LFE3391:
	.size	_ZNSt12_Vector_baseIPN3hsm18StateValueResetterESaIS2_EE17_M_create_storageEm, .-_ZNSt12_Vector_baseIPN3hsm18StateValueResetterESaIS2_EE17_M_create_storageEm
	.section	.text._ZNSt12_Vector_baseIPN3hsm18StateValueResetterESaIS2_EE13_M_deallocateEPS2_m,"axG",@progbits,_ZNSt12_Vector_baseIPN3hsm18StateValueResetterESaIS2_EE13_M_deallocateEPS2_m,comdat
	.align 2
	.weak	_ZNSt12_Vector_baseIPN3hsm18StateValueResetterESaIS2_EE13_M_deallocateEPS2_m
	.type	_ZNSt12_Vector_baseIPN3hsm18StateValueResetterESaIS2_EE13_M_deallocateEPS2_m, @function
_ZNSt12_Vector_baseIPN3hsm18StateValueResetterESaIS2_EE13_M_deallocateEPS2_m:
.LFB3392:
	.cfi_startproc
	endbr64
	pushq	%rbp
	.cfi_def_cfa_offset 16
	.cfi_offset 6, -16
	movq	%rsp, %rbp
	.cfi_def_cfa_register 6
	subq	$32, %rsp
	movq	%rdi, -8(%rbp)
	movq	%rsi, -16(%rbp)
	movq	%rdx, -24(%rbp)
	cmpq	$0, -16(%rbp)
	je	.L349
	movq	-8(%rbp), %rax
	movq	-24(%rbp), %rdx
	movq	-16(%rbp), %rcx
	movq	%rcx, %rsi
	movq	%rax, %rdi
	call	_ZNSt16allocator_traitsISaIPN3hsm18StateValueResetterEEE10deallocateERS3_PS2_m
.L349:
	nop
	leave
	.cfi_def_cfa 7, 8
	ret
	.cfi_endproc
.LFE3392:
	.size	_ZNSt12_Vector_baseIPN3hsm18StateValueResetterESaIS2_EE13_M_deallocateEPS2_m, .-_ZNSt12_Vector_baseIPN3hsm18StateValueResetterESaIS2_EE13_M_deallocateEPS2_m
	.section	.text._ZSt27__uninitialized_default_n_aIPPN3hsm18StateValueResetterEmS2_ET_S4_T0_RSaIT1_E,"axG",@progbits,_ZSt27__uninitialized_default_n_aIPPN3hsm18StateValueResetterEmS2_ET_S4_T0_RSaIT1_E,comdat
	.weak	_ZSt27__uninitialized_default_n_aIPPN3hsm18StateValueResetterEmS2_ET_S4_T0_RSaIT1_E
	.type	_ZSt27__uninitialized_default_n_aIPPN3hsm18StateValueResetterEmS2_ET_S4_T0_RSaIT1_E, @function
_ZSt27__uninitialized_default_n_aIPPN3hsm18StateValueResetterEmS2_ET_S4_T0_RSaIT1_E:
.LFB3393:
	.cfi_startproc
	endbr64
	pushq	%rbp
	.cfi_def_cfa_offset 16
	.cfi_offset 6, -16
	movq	%rsp, %rbp
	.cfi_def_cfa_register 6
	subq	$32, %rsp
	movq	%rdi, -8(%rbp)
	movq	%rsi, -16(%rbp)
	movq	%rdx, -24(%rbp)
	movq	-16(%rbp), %rdx
	movq	-8(%rbp), %rax
	movq	%rdx, %rsi
	movq	%rax, %rdi
	call	_ZSt25__uninitialized_default_nIPPN3hsm18StateValueResetterEmET_S4_T0_
	leave
	.cfi_def_cfa 7, 8
	ret
	.cfi_endproc
.LFE3393:
	.size	_ZSt27__uninitialized_default_n_aIPPN3hsm18StateValueResetterEmS2_ET_S4_T0_RSaIT1_E, .-_ZSt27__uninitialized_default_n_aIPPN3hsm18StateValueResetterEmS2_ET_S4_T0_RSaIT1_E
	.section	.text._ZSt8_DestroyIPPN3hsm18StateValueResetterEEvT_S4_,"axG",@progbits,_ZSt8_DestroyIPPN3hsm18StateValueResetterEEvT_S4_,comdat
	.weak	_ZSt8_DestroyIPPN3hsm18StateValueResetterEEvT_S4_
	.type	_ZSt8_DestroyIPPN3hsm18StateValueResetterEEvT_S4_, @function
_ZSt8_DestroyIPPN3hsm18StateValueResetterEEvT_S4_:
.LFB3394:
	.cfi_startproc
	endbr64
	pushq	%rbp
	.cfi_def_cfa_offset 16
	.cfi_offset 6, -16
	movq	%rsp, %rbp
	.cfi_def_cfa_register 6
	subq	$16, %rsp
	movq	%rdi, -8(%rbp)
	movq	%rsi, -16(%rbp)
	movq	-16(%rbp), %rdx
	movq	-8(%rbp), %rax
	movq	%rdx, %rsi
	movq	%rax, %rdi
	call	_ZNSt12_Destroy_auxILb1EE9__destroyIPPN3hsm18StateValueResetterEEEvT_S6_
	nop
	leave
	.cfi_def_cfa 7, 8
	ret
	.cfi_endproc
.LFE3394:
	.size	_ZSt8_DestroyIPPN3hsm18StateValueResetterEEvT_S4_, .-_ZSt8_DestroyIPPN3hsm18StateValueResetterEEvT_S4_
	.section	.text._ZN9__gnu_cxx17__normal_iteratorIPKPN3hsm5StateESt6vectorIS3_SaIS3_EEEC2ERKS5_,"axG",@progbits,_ZN9__gnu_cxx17__normal_iteratorIPKPN3hsm5StateESt6vectorIS3_SaIS3_EEEC5ERKS5_,comdat
	.align 2
	.weak	_ZN9__gnu_cxx17__normal_iteratorIPKPN3hsm5StateESt6vectorIS3_SaIS3_EEEC2ERKS5_
	.type	_ZN9__gnu_cxx17__normal_iteratorIPKPN3hsm5StateESt6vectorIS3_SaIS3_EEEC2ERKS5_, @function
_ZN9__gnu_cxx17__normal_iteratorIPKPN3hsm5StateESt6vectorIS3_SaIS3_EEEC2ERKS5_:
.LFB3397:
	.cfi_startproc
	endbr64
	pushq	%rbp
	.cfi_def_cfa_offset 16
	.cfi_offset 6, -16
	movq	%rsp, %rbp
	.cfi_def_cfa_register 6
	movq	%rdi, -8(%rbp)
	movq	%rsi, -16(%rbp)
	movq	-16(%rbp), %rax
	movq	(%rax), %rdx
	movq	-8(%rbp), %rax
	movq	%rdx, (%rax)
	nop
	popq	%rbp
	.cfi_def_cfa 7, 8
	ret
	.cfi_endproc
.LFE3397:
	.size	_ZN9__gnu_cxx17__normal_iteratorIPKPN3hsm5StateESt6vectorIS3_SaIS3_EEEC2ERKS5_, .-_ZN9__gnu_cxx17__normal_iteratorIPKPN3hsm5StateESt6vectorIS3_SaIS3_EEEC2ERKS5_
	.weak	_ZN9__gnu_cxx17__normal_iteratorIPKPN3hsm5StateESt6vectorIS3_SaIS3_EEEC1ERKS5_
	.set	_ZN9__gnu_cxx17__normal_iteratorIPKPN3hsm5StateESt6vectorIS3_SaIS3_EEEC1ERKS5_,_ZN9__gnu_cxx17__normal_iteratorIPKPN3hsm5StateESt6vectorIS3_SaIS3_EEEC2ERKS5_
	.section	.text._ZNK9__gnu_cxx17__normal_iteratorIPKPN3hsm5StateESt6vectorIS3_SaIS3_EEE4baseEv,"axG",@progbits,_ZNK9__gnu_cxx17__normal_iteratorIPKPN3hsm5StateESt6vectorIS3_SaIS3_EEE4baseEv,comdat
	.align 2
	.weak	_ZNK9__gnu_cxx17__normal_iteratorIPKPN3hsm5StateESt6vectorIS3_SaIS3_EEE4baseEv
	.type	_ZNK9__gnu_cxx17__normal_iteratorIPKPN3hsm5StateESt6vectorIS3_SaIS3_EEE4baseEv, @function
_ZNK9__gnu_cxx17__normal_iteratorIPKPN3hsm5StateESt6vectorIS3_SaIS3_EEE4baseEv:
.LFB3399:
	.cfi_startproc
	endbr64
	pushq	%rbp
	.cfi_def_cfa_offset 16
	.cfi_offset 6, -16
	movq	%rsp, %rbp
	.cfi_def_cfa_register 6
	movq	%rdi, -8(%rbp)
	movq	-8(%rbp), %rax
	popq	%rbp
	.cfi_def_cfa 7, 8
	ret
	.cfi_endproc
.LFE3399:
	.size	_ZNK9__gnu_cxx17__normal_iteratorIPKPN3hsm5StateESt6vectorIS3_SaIS3_EEE4baseEv, .-_ZNK9__gnu_cxx17__normal_iteratorIPKPN3hsm5StateESt6vectorIS3_SaIS3_EEE4baseEv
	.section	.text._ZN9__gnu_cxx13new_allocatorIPN3hsm5StateEEC2Ev,"axG",@progbits,_ZN9__gnu_cxx13new_allocatorIPN3hsm5StateEEC5Ev,comdat
	.align 2
	.weak	_ZN9__gnu_cxx13new_allocatorIPN3hsm5StateEEC2Ev
	.type	_ZN9__gnu_cxx13new_allocatorIPN3hsm5StateEEC2Ev, @function
_ZN9__gnu_cxx13new_allocatorIPN3hsm5StateEEC2Ev:
.LFB3401:
	.cfi_startproc
	endbr64
	pushq	%rbp
	.cfi_def_cfa_offset 16
	.cfi_offset 6, -16
	movq	%rsp, %rbp
	.cfi_def_cfa_register 6
	movq	%rdi, -8(%rbp)
	nop
	popq	%rbp
	.cfi_def_cfa 7, 8
	ret
	.cfi_endproc
.LFE3401:
	.size	_ZN9__gnu_cxx13new_allocatorIPN3hsm5StateEEC2Ev, .-_ZN9__gnu_cxx13new_allocatorIPN3hsm5StateEEC2Ev
	.weak	_ZN9__gnu_cxx13new_allocatorIPN3hsm5StateEEC1Ev
	.set	_ZN9__gnu_cxx13new_allocatorIPN3hsm5StateEEC1Ev,_ZN9__gnu_cxx13new_allocatorIPN3hsm5StateEEC2Ev
	.section	.text._ZNSt16allocator_traitsISaIPN3hsm5StateEEE10deallocateERS3_PS2_m,"axG",@progbits,_ZNSt16allocator_traitsISaIPN3hsm5StateEEE10deallocateERS3_PS2_m,comdat
	.weak	_ZNSt16allocator_traitsISaIPN3hsm5StateEEE10deallocateERS3_PS2_m
	.type	_ZNSt16allocator_traitsISaIPN3hsm5StateEEE10deallocateERS3_PS2_m, @function
_ZNSt16allocator_traitsISaIPN3hsm5StateEEE10deallocateERS3_PS2_m:
.LFB3403:
	.cfi_startproc
	endbr64
	pushq	%rbp
	.cfi_def_cfa_offset 16
	.cfi_offset 6, -16
	movq	%rsp, %rbp
	.cfi_def_cfa_register 6
	subq	$32, %rsp
	movq	%rdi, -8(%rbp)
	movq	%rsi, -16(%rbp)
	movq	%rdx, -24(%rbp)
	movq	-24(%rbp), %rdx
	movq	-16(%rbp), %rcx
	movq	-8(%rbp), %rax
	movq	%rcx, %rsi
	movq	%rax, %rdi
	call	_ZN9__gnu_cxx13new_allocatorIPN3hsm5StateEE10deallocateEPS3_m
	nop
	leave
	.cfi_def_cfa 7, 8
	ret
	.cfi_endproc
.LFE3403:
	.size	_ZNSt16allocator_traitsISaIPN3hsm5StateEEE10deallocateERS3_PS2_m, .-_ZNSt16allocator_traitsISaIPN3hsm5StateEEE10deallocateERS3_PS2_m
	.section	.text._ZSt8_DestroyIPPN3hsm5StateEEvT_S4_,"axG",@progbits,_ZSt8_DestroyIPPN3hsm5StateEEvT_S4_,comdat
	.weak	_ZSt8_DestroyIPPN3hsm5StateEEvT_S4_
	.type	_ZSt8_DestroyIPPN3hsm5StateEEvT_S4_, @function
_ZSt8_DestroyIPPN3hsm5StateEEvT_S4_:
.LFB3404:
	.cfi_startproc
	endbr64
	pushq	%rbp
	.cfi_def_cfa_offset 16
	.cfi_offset 6, -16
	movq	%rsp, %rbp
	.cfi_def_cfa_register 6
	subq	$16, %rsp
	movq	%rdi, -8(%rbp)
	movq	%rsi, -16(%rbp)
	movq	-16(%rbp), %rdx
	movq	-8(%rbp), %rax
	movq	%rdx, %rsi
	movq	%rax, %rdi
	call	_ZNSt12_Destroy_auxILb1EE9__destroyIPPN3hsm5StateEEEvT_S6_
	nop
	leave
	.cfi_def_cfa 7, 8
	ret
	.cfi_endproc
.LFE3404:
	.size	_ZSt8_DestroyIPPN3hsm5StateEEvT_S4_, .-_ZSt8_DestroyIPPN3hsm5StateEEvT_S4_
	.section	.text._ZN9__gnu_cxx13new_allocatorISt13_Rb_tree_nodeISt4pairIKPKN3hsm12StateFactoryES6_EEEC2Ev,"axG",@progbits,_ZN9__gnu_cxx13new_allocatorISt13_Rb_tree_nodeISt4pairIKPKN3hsm12StateFactoryES6_EEEC5Ev,comdat
	.align 2
	.weak	_ZN9__gnu_cxx13new_allocatorISt13_Rb_tree_nodeISt4pairIKPKN3hsm12StateFactoryES6_EEEC2Ev
	.type	_ZN9__gnu_cxx13new_allocatorISt13_Rb_tree_nodeISt4pairIKPKN3hsm12StateFactoryES6_EEEC2Ev, @function
_ZN9__gnu_cxx13new_allocatorISt13_Rb_tree_nodeISt4pairIKPKN3hsm12StateFactoryES6_EEEC2Ev:
.LFB3406:
	.cfi_startproc
	endbr64
	pushq	%rbp
	.cfi_def_cfa_offset 16
	.cfi_offset 6, -16
	movq	%rsp, %rbp
	.cfi_def_cfa_register 6
	movq	%rdi, -8(%rbp)
	nop
	popq	%rbp
	.cfi_def_cfa 7, 8
	ret
	.cfi_endproc
.LFE3406:
	.size	_ZN9__gnu_cxx13new_allocatorISt13_Rb_tree_nodeISt4pairIKPKN3hsm12StateFactoryES6_EEEC2Ev, .-_ZN9__gnu_cxx13new_allocatorISt13_Rb_tree_nodeISt4pairIKPKN3hsm12StateFactoryES6_EEEC2Ev
	.weak	_ZN9__gnu_cxx13new_allocatorISt13_Rb_tree_nodeISt4pairIKPKN3hsm12StateFactoryES6_EEEC1Ev
	.set	_ZN9__gnu_cxx13new_allocatorISt13_Rb_tree_nodeISt4pairIKPKN3hsm12StateFactoryES6_EEEC1Ev,_ZN9__gnu_cxx13new_allocatorISt13_Rb_tree_nodeISt4pairIKPKN3hsm12StateFactoryES6_EEEC2Ev
	.section	.text._ZNSt8_Rb_treeIPKN3hsm12StateFactoryESt4pairIKS3_S3_ESt10_Select1stIS6_ESt4lessIS3_ESaIS6_EE8_S_rightEPSt18_Rb_tree_node_base,"axG",@progbits,_ZNSt8_Rb_treeIPKN3hsm12StateFactoryESt4pairIKS3_S3_ESt10_Select1stIS6_ESt4lessIS3_ESaIS6_EE8_S_rightEPSt18_Rb_tree_node_base,comdat
	.weak	_ZNSt8_Rb_treeIPKN3hsm12StateFactoryESt4pairIKS3_S3_ESt10_Select1stIS6_ESt4lessIS3_ESaIS6_EE8_S_rightEPSt18_Rb_tree_node_base
	.type	_ZNSt8_Rb_treeIPKN3hsm12StateFactoryESt4pairIKS3_S3_ESt10_Select1stIS6_ESt4lessIS3_ESaIS6_EE8_S_rightEPSt18_Rb_tree_node_base, @function
_ZNSt8_Rb_treeIPKN3hsm12StateFactoryESt4pairIKS3_S3_ESt10_Select1stIS6_ESt4lessIS3_ESaIS6_EE8_S_rightEPSt18_Rb_tree_node_base:
.LFB3408:
	.cfi_startproc
	endbr64
	pushq	%rbp
	.cfi_def_cfa_offset 16
	.cfi_offset 6, -16
	movq	%rsp, %rbp
	.cfi_def_cfa_register 6
	movq	%rdi, -8(%rbp)
	movq	-8(%rbp), %rax
	movq	24(%rax), %rax
	popq	%rbp
	.cfi_def_cfa 7, 8
	ret
	.cfi_endproc
.LFE3408:
	.size	_ZNSt8_Rb_treeIPKN3hsm12StateFactoryESt4pairIKS3_S3_ESt10_Select1stIS6_ESt4lessIS3_ESaIS6_EE8_S_rightEPSt18_Rb_tree_node_base, .-_ZNSt8_Rb_treeIPKN3hsm12StateFactoryESt4pairIKS3_S3_ESt10_Select1stIS6_ESt4lessIS3_ESaIS6_EE8_S_rightEPSt18_Rb_tree_node_base
	.section	.text._ZNSt8_Rb_treeIPKN3hsm12StateFactoryESt4pairIKS3_S3_ESt10_Select1stIS6_ESt4lessIS3_ESaIS6_EE7_S_leftEPSt18_Rb_tree_node_base,"axG",@progbits,_ZNSt8_Rb_treeIPKN3hsm12StateFactoryESt4pairIKS3_S3_ESt10_Select1stIS6_ESt4lessIS3_ESaIS6_EE7_S_leftEPSt18_Rb_tree_node_base,comdat
	.weak	_ZNSt8_Rb_treeIPKN3hsm12StateFactoryESt4pairIKS3_S3_ESt10_Select1stIS6_ESt4lessIS3_ESaIS6_EE7_S_leftEPSt18_Rb_tree_node_base
	.type	_ZNSt8_Rb_treeIPKN3hsm12StateFactoryESt4pairIKS3_S3_ESt10_Select1stIS6_ESt4lessIS3_ESaIS6_EE7_S_leftEPSt18_Rb_tree_node_base, @function
_ZNSt8_Rb_treeIPKN3hsm12StateFactoryESt4pairIKS3_S3_ESt10_Select1stIS6_ESt4lessIS3_ESaIS6_EE7_S_leftEPSt18_Rb_tree_node_base:
.LFB3409:
	.cfi_startproc
	endbr64
	pushq	%rbp
	.cfi_def_cfa_offset 16
	.cfi_offset 6, -16
	movq	%rsp, %rbp
	.cfi_def_cfa_register 6
	movq	%rdi, -8(%rbp)
	movq	-8(%rbp), %rax
	movq	16(%rax), %rax
	popq	%rbp
	.cfi_def_cfa 7, 8
	ret
	.cfi_endproc
.LFE3409:
	.size	_ZNSt8_Rb_treeIPKN3hsm12StateFactoryESt4pairIKS3_S3_ESt10_Select1stIS6_ESt4lessIS3_ESaIS6_EE7_S_leftEPSt18_Rb_tree_node_base, .-_ZNSt8_Rb_treeIPKN3hsm12StateFactoryESt4pairIKS3_S3_ESt10_Select1stIS6_ESt4lessIS3_ESaIS6_EE7_S_leftEPSt18_Rb_tree_node_base
	.section	.text._ZNSt8_Rb_treeIPKN3hsm12StateFactoryESt4pairIKS3_S3_ESt10_Select1stIS6_ESt4lessIS3_ESaIS6_EE12_M_drop_nodeEPSt13_Rb_tree_nodeIS6_E,"axG",@progbits,_ZNSt8_Rb_treeIPKN3hsm12StateFactoryESt4pairIKS3_S3_ESt10_Select1stIS6_ESt4lessIS3_ESaIS6_EE12_M_drop_nodeEPSt13_Rb_tree_nodeIS6_E,comdat
	.align 2
	.weak	_ZNSt8_Rb_treeIPKN3hsm12StateFactoryESt4pairIKS3_S3_ESt10_Select1stIS6_ESt4lessIS3_ESaIS6_EE12_M_drop_nodeEPSt13_Rb_tree_nodeIS6_E
	.type	_ZNSt8_Rb_treeIPKN3hsm12StateFactoryESt4pairIKS3_S3_ESt10_Select1stIS6_ESt4lessIS3_ESaIS6_EE12_M_drop_nodeEPSt13_Rb_tree_nodeIS6_E, @function
_ZNSt8_Rb_treeIPKN3hsm12StateFactoryESt4pairIKS3_S3_ESt10_Select1stIS6_ESt4lessIS3_ESaIS6_EE12_M_drop_nodeEPSt13_Rb_tree_nodeIS6_E:
.LFB3410:
	.cfi_startproc
	endbr64
	pushq	%rbp
	.cfi_def_cfa_offset 16
	.cfi_offset 6, -16
	movq	%rsp, %rbp
	.cfi_def_cfa_register 6
	subq	$16, %rsp
	movq	%rdi, -8(%rbp)
	movq	%rsi, -16(%rbp)
	movq	-16(%rbp), %rdx
	movq	-8(%rbp), %rax
	movq	%rdx, %rsi
	movq	%rax, %rdi
	call	_ZNSt8_Rb_treeIPKN3hsm12StateFactoryESt4pairIKS3_S3_ESt10_Select1stIS6_ESt4lessIS3_ESaIS6_EE15_M_destroy_nodeEPSt13_Rb_tree_nodeIS6_E
	movq	-16(%rbp), %rdx
	movq	-8(%rbp), %rax
	movq	%rdx, %rsi
	movq	%rax, %rdi
	call	_ZNSt8_Rb_treeIPKN3hsm12StateFactoryESt4pairIKS3_S3_ESt10_Select1stIS6_ESt4lessIS3_ESaIS6_EE11_M_put_nodeEPSt13_Rb_tree_nodeIS6_E
	nop
	leave
	.cfi_def_cfa 7, 8
	ret
	.cfi_endproc
.LFE3410:
	.size	_ZNSt8_Rb_treeIPKN3hsm12StateFactoryESt4pairIKS3_S3_ESt10_Select1stIS6_ESt4lessIS3_ESaIS6_EE12_M_drop_nodeEPSt13_Rb_tree_nodeIS6_E, .-_ZNSt8_Rb_treeIPKN3hsm12StateFactoryESt4pairIKS3_S3_ESt10_Select1stIS6_ESt4lessIS3_ESaIS6_EE12_M_drop_nodeEPSt13_Rb_tree_nodeIS6_E
	.section	.text._ZNKSt8_Rb_treeIPKN3hsm12StateFactoryESt4pairIKS3_S3_ESt10_Select1stIS6_ESt4lessIS3_ESaIS6_EE9_M_mbeginEv,"axG",@progbits,_ZNKSt8_Rb_treeIPKN3hsm12StateFactoryESt4pairIKS3_S3_ESt10_Select1stIS6_ESt4lessIS3_ESaIS6_EE9_M_mbeginEv,comdat
	.align 2
	.weak	_ZNKSt8_Rb_treeIPKN3hsm12StateFactoryESt4pairIKS3_S3_ESt10_Select1stIS6_ESt4lessIS3_ESaIS6_EE9_M_mbeginEv
	.type	_ZNKSt8_Rb_treeIPKN3hsm12StateFactoryESt4pairIKS3_S3_ESt10_Select1stIS6_ESt4lessIS3_ESaIS6_EE9_M_mbeginEv, @function
_ZNKSt8_Rb_treeIPKN3hsm12StateFactoryESt4pairIKS3_S3_ESt10_Select1stIS6_ESt4lessIS3_ESaIS6_EE9_M_mbeginEv:
.LFB3411:
	.cfi_startproc
	endbr64
	pushq	%rbp
	.cfi_def_cfa_offset 16
	.cfi_offset 6, -16
	movq	%rsp, %rbp
	.cfi_def_cfa_register 6
	movq	%rdi, -8(%rbp)
	movq	-8(%rbp), %rax
	movq	16(%rax), %rax
	popq	%rbp
	.cfi_def_cfa 7, 8
	ret
	.cfi_endproc
.LFE3411:
	.size	_ZNKSt8_Rb_treeIPKN3hsm12StateFactoryESt4pairIKS3_S3_ESt10_Select1stIS6_ESt4lessIS3_ESaIS6_EE9_M_mbeginEv, .-_ZNKSt8_Rb_treeIPKN3hsm12StateFactoryESt4pairIKS3_S3_ESt10_Select1stIS6_ESt4lessIS3_ESaIS6_EE9_M_mbeginEv
	.section	.text._ZSt7forwardIRKPN3hsm5StateEEOT_RNSt16remove_referenceIS5_E4typeE,"axG",@progbits,_ZSt7forwardIRKPN3hsm5StateEEOT_RNSt16remove_referenceIS5_E4typeE,comdat
	.weak	_ZSt7forwardIRKPN3hsm5StateEEOT_RNSt16remove_referenceIS5_E4typeE
	.type	_ZSt7forwardIRKPN3hsm5StateEEOT_RNSt16remove_referenceIS5_E4typeE, @function
_ZSt7forwardIRKPN3hsm5StateEEOT_RNSt16remove_referenceIS5_E4typeE:
.LFB3416:
	.cfi_startproc
	endbr64
	pushq	%rbp
	.cfi_def_cfa_offset 16
	.cfi_offset 6, -16
	movq	%rsp, %rbp
	.cfi_def_cfa_register 6
	movq	%rdi, -8(%rbp)
	movq	-8(%rbp), %rax
	popq	%rbp
	.cfi_def_cfa 7, 8
	ret
	.cfi_endproc
.LFE3416:
	.size	_ZSt7forwardIRKPN3hsm5StateEEOT_RNSt16remove_referenceIS5_E4typeE, .-_ZSt7forwardIRKPN3hsm5StateEEOT_RNSt16remove_referenceIS5_E4typeE
	.section	.text._ZN9__gnu_cxx13new_allocatorIPN3hsm5StateEE9constructIS3_JRKS3_EEEvPT_DpOT0_,"axG",@progbits,_ZN9__gnu_cxx13new_allocatorIPN3hsm5StateEE9constructIS3_JRKS3_EEEvPT_DpOT0_,comdat
	.align 2
	.weak	_ZN9__gnu_cxx13new_allocatorIPN3hsm5StateEE9constructIS3_JRKS3_EEEvPT_DpOT0_
	.type	_ZN9__gnu_cxx13new_allocatorIPN3hsm5StateEE9constructIS3_JRKS3_EEEvPT_DpOT0_, @function
_ZN9__gnu_cxx13new_allocatorIPN3hsm5StateEE9constructIS3_JRKS3_EEEvPT_DpOT0_:
.LFB3417:
	.cfi_startproc
	endbr64
	pushq	%rbp
	.cfi_def_cfa_offset 16
	.cfi_offset 6, -16
	movq	%rsp, %rbp
	.cfi_def_cfa_register 6
	pushq	%rbx
	subq	$40, %rsp
	.cfi_offset 3, -24
	movq	%rdi, -24(%rbp)
	movq	%rsi, -32(%rbp)
	movq	%rdx, -40(%rbp)
	movq	-40(%rbp), %rax
	movq	%rax, %rdi
	call	_ZSt7forwardIRKPN3hsm5StateEEOT_RNSt16remove_referenceIS5_E4typeE
	movq	(%rax), %rbx
	movq	-32(%rbp), %rax
	movq	%rax, %rsi
	movl	$8, %edi
	call	_ZnwmPv
	movq	%rbx, (%rax)
	nop
	movq	-8(%rbp), %rbx
	leave
	.cfi_def_cfa 7, 8
	ret
	.cfi_endproc
.LFE3417:
	.size	_ZN9__gnu_cxx13new_allocatorIPN3hsm5StateEE9constructIS3_JRKS3_EEEvPT_DpOT0_, .-_ZN9__gnu_cxx13new_allocatorIPN3hsm5StateEE9constructIS3_JRKS3_EEEvPT_DpOT0_
	.section	.text._ZNKSt6vectorIPN3hsm5StateESaIS2_EE12_M_check_lenEmPKc,"axG",@progbits,_ZNKSt6vectorIPN3hsm5StateESaIS2_EE12_M_check_lenEmPKc,comdat
	.align 2
	.weak	_ZNKSt6vectorIPN3hsm5StateESaIS2_EE12_M_check_lenEmPKc
	.type	_ZNKSt6vectorIPN3hsm5StateESaIS2_EE12_M_check_lenEmPKc, @function
_ZNKSt6vectorIPN3hsm5StateESaIS2_EE12_M_check_lenEmPKc:
.LFB3418:
	.cfi_startproc
	endbr64
	pushq	%rbp
	.cfi_def_cfa_offset 16
	.cfi_offset 6, -16
	movq	%rsp, %rbp
	.cfi_def_cfa_register 6
	pushq	%rbx
	subq	$72, %rsp
	.cfi_offset 3, -24
	movq	%rdi, -56(%rbp)
	movq	%rsi, -64(%rbp)
	movq	%rdx, -72(%rbp)
	movq	%fs:40, %rax
	movq	%rax, -24(%rbp)
	xorl	%eax, %eax
	movq	-56(%rbp), %rax
	movq	%rax, %rdi
	call	_ZNKSt6vectorIPN3hsm5StateESaIS2_EE8max_sizeEv
	movq	%rax, %rbx
	movq	-56(%rbp), %rax
	movq	%rax, %rdi
	call	_ZNKSt6vectorIPN3hsm5StateESaIS2_EE4sizeEv
	subq	%rax, %rbx
	movq	%rbx, %rdx
	movq	-64(%rbp), %rax
	cmpq	%rax, %rdx
	setb	%al
	testb	%al, %al
	je	.L371
	movq	-72(%rbp), %rax
	movq	%rax, %rdi
	call	_ZSt20__throw_length_errorPKc@PLT
.L371:
	movq	-56(%rbp), %rax
	movq	%rax, %rdi
	call	_ZNKSt6vectorIPN3hsm5StateESaIS2_EE4sizeEv
	movq	%rax, %rbx
	movq	-56(%rbp), %rax
	movq	%rax, %rdi
	call	_ZNKSt6vectorIPN3hsm5StateESaIS2_EE4sizeEv
	movq	%rax, -40(%rbp)
	leaq	-64(%rbp), %rdx
	leaq	-40(%rbp), %rax
	movq	%rdx, %rsi
	movq	%rax, %rdi
	call	_ZSt3maxImERKT_S2_S2_
	movq	(%rax), %rax
	addq	%rbx, %rax
	movq	%rax, -32(%rbp)
	movq	-56(%rbp), %rax
	movq	%rax, %rdi
	call	_ZNKSt6vectorIPN3hsm5StateESaIS2_EE4sizeEv
	cmpq	%rax, -32(%rbp)
	jb	.L372
	movq	-56(%rbp), %rax
	movq	%rax, %rdi
	call	_ZNKSt6vectorIPN3hsm5StateESaIS2_EE8max_sizeEv
	cmpq	%rax, -32(%rbp)
	jbe	.L373
.L372:
	movq	-56(%rbp), %rax
	movq	%rax, %rdi
	call	_ZNKSt6vectorIPN3hsm5StateESaIS2_EE8max_sizeEv
	jmp	.L374
.L373:
	movq	-32(%rbp), %rax
.L374:
	movq	-24(%rbp), %rdx
	subq	%fs:40, %rdx
	je	.L376
	call	__stack_chk_fail@PLT
.L376:
	movq	-8(%rbp), %rbx
	leave
	.cfi_def_cfa 7, 8
	ret
	.cfi_endproc
.LFE3418:
	.size	_ZNKSt6vectorIPN3hsm5StateESaIS2_EE12_M_check_lenEmPKc, .-_ZNKSt6vectorIPN3hsm5StateESaIS2_EE12_M_check_lenEmPKc
	.section	.text._ZN9__gnu_cxxmiIPPN3hsm5StateESt6vectorIS3_SaIS3_EEEENS_17__normal_iteratorIT_T0_E15difference_typeERKSB_SE_,"axG",@progbits,_ZN9__gnu_cxxmiIPPN3hsm5StateESt6vectorIS3_SaIS3_EEEENS_17__normal_iteratorIT_T0_E15difference_typeERKSB_SE_,comdat
	.weak	_ZN9__gnu_cxxmiIPPN3hsm5StateESt6vectorIS3_SaIS3_EEEENS_17__normal_iteratorIT_T0_E15difference_typeERKSB_SE_
	.type	_ZN9__gnu_cxxmiIPPN3hsm5StateESt6vectorIS3_SaIS3_EEEENS_17__normal_iteratorIT_T0_E15difference_typeERKSB_SE_, @function
_ZN9__gnu_cxxmiIPPN3hsm5StateESt6vectorIS3_SaIS3_EEEENS_17__normal_iteratorIT_T0_E15difference_typeERKSB_SE_:
.LFB3419:
	.cfi_startproc
	endbr64
	pushq	%rbp
	.cfi_def_cfa_offset 16
	.cfi_offset 6, -16
	movq	%rsp, %rbp
	.cfi_def_cfa_register 6
	pushq	%rbx
	subq	$24, %rsp
	.cfi_offset 3, -24
	movq	%rdi, -24(%rbp)
	movq	%rsi, -32(%rbp)
	movq	-24(%rbp), %rax
	movq	%rax, %rdi
	call	_ZNK9__gnu_cxx17__normal_iteratorIPPN3hsm5StateESt6vectorIS3_SaIS3_EEE4baseEv
	movq	(%rax), %rbx
	movq	-32(%rbp), %rax
	movq	%rax, %rdi
	call	_ZNK9__gnu_cxx17__normal_iteratorIPPN3hsm5StateESt6vectorIS3_SaIS3_EEE4baseEv
	movq	(%rax), %rdx
	movq	%rbx, %rax
	subq	%rdx, %rax
	sarq	$3, %rax
	movq	-8(%rbp), %rbx
	leave
	.cfi_def_cfa 7, 8
	ret
	.cfi_endproc
.LFE3419:
	.size	_ZN9__gnu_cxxmiIPPN3hsm5StateESt6vectorIS3_SaIS3_EEEENS_17__normal_iteratorIT_T0_E15difference_typeERKSB_SE_, .-_ZN9__gnu_cxxmiIPPN3hsm5StateESt6vectorIS3_SaIS3_EEEENS_17__normal_iteratorIT_T0_E15difference_typeERKSB_SE_
	.section	.text._ZNSt12_Vector_baseIPN3hsm5StateESaIS2_EE11_M_allocateEm,"axG",@progbits,_ZNSt12_Vector_baseIPN3hsm5StateESaIS2_EE11_M_allocateEm,comdat
	.align 2
	.weak	_ZNSt12_Vector_baseIPN3hsm5StateESaIS2_EE11_M_allocateEm
	.type	_ZNSt12_Vector_baseIPN3hsm5StateESaIS2_EE11_M_allocateEm, @function
_ZNSt12_Vector_baseIPN3hsm5StateESaIS2_EE11_M_allocateEm:
.LFB3420:
	.cfi_startproc
	endbr64
	pushq	%rbp
	.cfi_def_cfa_offset 16
	.cfi_offset 6, -16
	movq	%rsp, %rbp
	.cfi_def_cfa_register 6
	subq	$16, %rsp
	movq	%rdi, -8(%rbp)
	movq	%rsi, -16(%rbp)
	cmpq	$0, -16(%rbp)
	je	.L380
	movq	-8(%rbp), %rax
	movq	-16(%rbp), %rdx
	movq	%rdx, %rsi
	movq	%rax, %rdi
	call	_ZNSt16allocator_traitsISaIPN3hsm5StateEEE8allocateERS3_m
	jmp	.L382
.L380:
	movl	$0, %eax
.L382:
	leave
	.cfi_def_cfa 7, 8
	ret
	.cfi_endproc
.LFE3420:
	.size	_ZNSt12_Vector_baseIPN3hsm5StateESaIS2_EE11_M_allocateEm, .-_ZNSt12_Vector_baseIPN3hsm5StateESaIS2_EE11_M_allocateEm
	.section	.text._ZNSt6vectorIPN3hsm5StateESaIS2_EE11_S_relocateEPS2_S5_S5_RS3_,"axG",@progbits,_ZNSt6vectorIPN3hsm5StateESaIS2_EE11_S_relocateEPS2_S5_S5_RS3_,comdat
	.weak	_ZNSt6vectorIPN3hsm5StateESaIS2_EE11_S_relocateEPS2_S5_S5_RS3_
	.type	_ZNSt6vectorIPN3hsm5StateESaIS2_EE11_S_relocateEPS2_S5_S5_RS3_, @function
_ZNSt6vectorIPN3hsm5StateESaIS2_EE11_S_relocateEPS2_S5_S5_RS3_:
.LFB3421:
	.cfi_startproc
	endbr64
	pushq	%rbp
	.cfi_def_cfa_offset 16
	.cfi_offset 6, -16
	movq	%rsp, %rbp
	.cfi_def_cfa_register 6
	subq	$32, %rsp
	movq	%rdi, -8(%rbp)
	movq	%rsi, -16(%rbp)
	movq	%rdx, -24(%rbp)
	movq	%rcx, -32(%rbp)
	movq	-32(%rbp), %rcx
	movq	-24(%rbp), %rdx
	movq	-16(%rbp), %rsi
	movq	-8(%rbp), %rax
	movq	%rax, %rdi
	call	_ZNSt6vectorIPN3hsm5StateESaIS2_EE14_S_do_relocateEPS2_S5_S5_RS3_St17integral_constantIbLb1EE
	leave
	.cfi_def_cfa 7, 8
	ret
	.cfi_endproc
.LFE3421:
	.size	_ZNSt6vectorIPN3hsm5StateESaIS2_EE11_S_relocateEPS2_S5_S5_RS3_, .-_ZNSt6vectorIPN3hsm5StateESaIS2_EE11_S_relocateEPS2_S5_S5_RS3_
	.section	.text._ZSt34__uninitialized_move_if_noexcept_aIPPN3hsm5StateES3_SaIS2_EET0_T_S6_S5_RT1_,"axG",@progbits,_ZSt34__uninitialized_move_if_noexcept_aIPPN3hsm5StateES3_SaIS2_EET0_T_S6_S5_RT1_,comdat
	.weak	_ZSt34__uninitialized_move_if_noexcept_aIPPN3hsm5StateES3_SaIS2_EET0_T_S6_S5_RT1_
	.type	_ZSt34__uninitialized_move_if_noexcept_aIPPN3hsm5StateES3_SaIS2_EET0_T_S6_S5_RT1_, @function
_ZSt34__uninitialized_move_if_noexcept_aIPPN3hsm5StateES3_SaIS2_EET0_T_S6_S5_RT1_:
.LFB3422:
	.cfi_startproc
	endbr64
	pushq	%rbp
	.cfi_def_cfa_offset 16
	.cfi_offset 6, -16
	movq	%rsp, %rbp
	.cfi_def_cfa_register 6
	pushq	%rbx
	subq	$40, %rsp
	.cfi_offset 3, -24
	movq	%rdi, -24(%rbp)
	movq	%rsi, -32(%rbp)
	movq	%rdx, -40(%rbp)
	movq	%rcx, -48(%rbp)
	movq	-32(%rbp), %rax
	movq	%rax, %rdi
	call	_ZSt32__make_move_if_noexcept_iteratorIPN3hsm5StateESt13move_iteratorIPS2_EET0_PT_
	movq	%rax, %rbx
	movq	-24(%rbp), %rax
	movq	%rax, %rdi
	call	_ZSt32__make_move_if_noexcept_iteratorIPN3hsm5StateESt13move_iteratorIPS2_EET0_PT_
	movq	%rax, %rdi
	movq	-48(%rbp), %rdx
	movq	-40(%rbp), %rax
	movq	%rdx, %rcx
	movq	%rax, %rdx
	movq	%rbx, %rsi
	call	_ZSt22__uninitialized_copy_aISt13move_iteratorIPPN3hsm5StateEES4_S3_ET0_T_S7_S6_RSaIT1_E
	movq	-8(%rbp), %rbx
	leave
	.cfi_def_cfa 7, 8
	ret
	.cfi_endproc
.LFE3422:
	.size	_ZSt34__uninitialized_move_if_noexcept_aIPPN3hsm5StateES3_SaIS2_EET0_T_S6_S5_RT1_, .-_ZSt34__uninitialized_move_if_noexcept_aIPPN3hsm5StateES3_SaIS2_EET0_T_S6_S5_RT1_
	.section	.text._ZN9__gnu_cxx13new_allocatorIPN3hsm5StateEE7destroyIS3_EEvPT_,"axG",@progbits,_ZN9__gnu_cxx13new_allocatorIPN3hsm5StateEE7destroyIS3_EEvPT_,comdat
	.align 2
	.weak	_ZN9__gnu_cxx13new_allocatorIPN3hsm5StateEE7destroyIS3_EEvPT_
	.type	_ZN9__gnu_cxx13new_allocatorIPN3hsm5StateEE7destroyIS3_EEvPT_, @function
_ZN9__gnu_cxx13new_allocatorIPN3hsm5StateEE7destroyIS3_EEvPT_:
.LFB3423:
	.cfi_startproc
	endbr64
	pushq	%rbp
	.cfi_def_cfa_offset 16
	.cfi_offset 6, -16
	movq	%rsp, %rbp
	.cfi_def_cfa_register 6
	movq	%rdi, -8(%rbp)
	movq	%rsi, -16(%rbp)
	nop
	popq	%rbp
	.cfi_def_cfa 7, 8
	ret
	.cfi_endproc
.LFE3423:
	.size	_ZN9__gnu_cxx13new_allocatorIPN3hsm5StateEE7destroyIS3_EEvPT_, .-_ZN9__gnu_cxx13new_allocatorIPN3hsm5StateEE7destroyIS3_EEvPT_
	.section	.text._ZN3hsm12StateFactoryC2Ev,"axG",@progbits,_ZN3hsm12StateFactoryC5Ev,comdat
	.align 2
	.weak	_ZN3hsm12StateFactoryC2Ev
	.type	_ZN3hsm12StateFactoryC2Ev, @function
_ZN3hsm12StateFactoryC2Ev:
.LFB3426:
	.cfi_startproc
	endbr64
	pushq	%rbp
	.cfi_def_cfa_offset 16
	.cfi_offset 6, -16
	movq	%rsp, %rbp
	.cfi_def_cfa_register 6
	movq	%rdi, -8(%rbp)
	leaq	16+_ZTVN3hsm12StateFactoryE(%rip), %rdx
	movq	-8(%rbp), %rax
	movq	%rdx, (%rax)
	nop
	popq	%rbp
	.cfi_def_cfa 7, 8
	ret
	.cfi_endproc
.LFE3426:
	.size	_ZN3hsm12StateFactoryC2Ev, .-_ZN3hsm12StateFactoryC2Ev
	.weak	_ZN3hsm12StateFactoryC1Ev
	.set	_ZN3hsm12StateFactoryC1Ev,_ZN3hsm12StateFactoryC2Ev
	.section	.text._ZN3hsm20ConcreteStateFactoryIN8MyStates6SecondEEC2Ev,"axG",@progbits,_ZN3hsm20ConcreteStateFactoryIN8MyStates6SecondEEC5Ev,comdat
	.align 2
	.weak	_ZN3hsm20ConcreteStateFactoryIN8MyStates6SecondEEC2Ev
	.type	_ZN3hsm20ConcreteStateFactoryIN8MyStates6SecondEEC2Ev, @function
_ZN3hsm20ConcreteStateFactoryIN8MyStates6SecondEEC2Ev:
.LFB3428:
	.cfi_startproc
	endbr64
	pushq	%rbp
	.cfi_def_cfa_offset 16
	.cfi_offset 6, -16
	movq	%rsp, %rbp
	.cfi_def_cfa_register 6
	subq	$16, %rsp
	movq	%rdi, -8(%rbp)
	movq	-8(%rbp), %rax
	movq	%rax, %rdi
	call	_ZN3hsm12StateFactoryC2Ev
	leaq	16+_ZTVN3hsm20ConcreteStateFactoryIN8MyStates6SecondEEE(%rip), %rdx
	movq	-8(%rbp), %rax
	movq	%rdx, (%rax)
	nop
	leave
	.cfi_def_cfa 7, 8
	ret
	.cfi_endproc
.LFE3428:
	.size	_ZN3hsm20ConcreteStateFactoryIN8MyStates6SecondEEC2Ev, .-_ZN3hsm20ConcreteStateFactoryIN8MyStates6SecondEEC2Ev
	.weak	_ZN3hsm20ConcreteStateFactoryIN8MyStates6SecondEEC1Ev
	.set	_ZN3hsm20ConcreteStateFactoryIN8MyStates6SecondEEC1Ev,_ZN3hsm20ConcreteStateFactoryIN8MyStates6SecondEEC2Ev
	.section	.text._ZN3hsm20ConcreteStateFactoryIN8MyStates5ThirdEEC2Ev,"axG",@progbits,_ZN3hsm20ConcreteStateFactoryIN8MyStates5ThirdEEC5Ev,comdat
	.align 2
	.weak	_ZN3hsm20ConcreteStateFactoryIN8MyStates5ThirdEEC2Ev
	.type	_ZN3hsm20ConcreteStateFactoryIN8MyStates5ThirdEEC2Ev, @function
_ZN3hsm20ConcreteStateFactoryIN8MyStates5ThirdEEC2Ev:
.LFB3431:
	.cfi_startproc
	endbr64
	pushq	%rbp
	.cfi_def_cfa_offset 16
	.cfi_offset 6, -16
	movq	%rsp, %rbp
	.cfi_def_cfa_register 6
	subq	$16, %rsp
	movq	%rdi, -8(%rbp)
	movq	-8(%rbp), %rax
	movq	%rax, %rdi
	call	_ZN3hsm12StateFactoryC2Ev
	leaq	16+_ZTVN3hsm20ConcreteStateFactoryIN8MyStates5ThirdEEE(%rip), %rdx
	movq	-8(%rbp), %rax
	movq	%rdx, (%rax)
	nop
	leave
	.cfi_def_cfa 7, 8
	ret
	.cfi_endproc
.LFE3431:
	.size	_ZN3hsm20ConcreteStateFactoryIN8MyStates5ThirdEEC2Ev, .-_ZN3hsm20ConcreteStateFactoryIN8MyStates5ThirdEEC2Ev
	.weak	_ZN3hsm20ConcreteStateFactoryIN8MyStates5ThirdEEC1Ev
	.set	_ZN3hsm20ConcreteStateFactoryIN8MyStates5ThirdEEC1Ev,_ZN3hsm20ConcreteStateFactoryIN8MyStates5ThirdEEC2Ev
	.section	.text._ZN3hsm20ConcreteStateFactoryIN8MyStates5FirstEEC2Ev,"axG",@progbits,_ZN3hsm20ConcreteStateFactoryIN8MyStates5FirstEEC5Ev,comdat
	.align 2
	.weak	_ZN3hsm20ConcreteStateFactoryIN8MyStates5FirstEEC2Ev
	.type	_ZN3hsm20ConcreteStateFactoryIN8MyStates5FirstEEC2Ev, @function
_ZN3hsm20ConcreteStateFactoryIN8MyStates5FirstEEC2Ev:
.LFB3434:
	.cfi_startproc
	endbr64
	pushq	%rbp
	.cfi_def_cfa_offset 16
	.cfi_offset 6, -16
	movq	%rsp, %rbp
	.cfi_def_cfa_register 6
	subq	$16, %rsp
	movq	%rdi, -8(%rbp)
	movq	-8(%rbp), %rax
	movq	%rax, %rdi
	call	_ZN3hsm12StateFactoryC2Ev
	leaq	16+_ZTVN3hsm20ConcreteStateFactoryIN8MyStates5FirstEEE(%rip), %rdx
	movq	-8(%rbp), %rax
	movq	%rdx, (%rax)
	nop
	leave
	.cfi_def_cfa 7, 8
	ret
	.cfi_endproc
.LFE3434:
	.size	_ZN3hsm20ConcreteStateFactoryIN8MyStates5FirstEEC2Ev, .-_ZN3hsm20ConcreteStateFactoryIN8MyStates5FirstEEC2Ev
	.weak	_ZN3hsm20ConcreteStateFactoryIN8MyStates5FirstEEC1Ev
	.set	_ZN3hsm20ConcreteStateFactoryIN8MyStates5FirstEEC1Ev,_ZN3hsm20ConcreteStateFactoryIN8MyStates5FirstEEC2Ev
	.section	.text._ZNSt16allocator_traitsISaIPN3hsm18StateValueResetterEEE8max_sizeERKS3_,"axG",@progbits,_ZNSt16allocator_traitsISaIPN3hsm18StateValueResetterEEE8max_sizeERKS3_,comdat
	.weak	_ZNSt16allocator_traitsISaIPN3hsm18StateValueResetterEEE8max_sizeERKS3_
	.type	_ZNSt16allocator_traitsISaIPN3hsm18StateValueResetterEEE8max_sizeERKS3_, @function
_ZNSt16allocator_traitsISaIPN3hsm18StateValueResetterEEE8max_sizeERKS3_:
.LFB3466:
	.cfi_startproc
	endbr64
	pushq	%rbp
	.cfi_def_cfa_offset 16
	.cfi_offset 6, -16
	movq	%rsp, %rbp
	.cfi_def_cfa_register 6
	subq	$16, %rsp
	movq	%rdi, -8(%rbp)
	movq	-8(%rbp), %rax
	movq	%rax, %rdi
	call	_ZNK9__gnu_cxx13new_allocatorIPN3hsm18StateValueResetterEE8max_sizeEv
	leave
	.cfi_def_cfa 7, 8
	ret
	.cfi_endproc
.LFE3466:
	.size	_ZNSt16allocator_traitsISaIPN3hsm18StateValueResetterEEE8max_sizeERKS3_, .-_ZNSt16allocator_traitsISaIPN3hsm18StateValueResetterEEE8max_sizeERKS3_
	.section	.text._ZSt3minImERKT_S2_S2_,"axG",@progbits,_ZSt3minImERKT_S2_S2_,comdat
	.weak	_ZSt3minImERKT_S2_S2_
	.type	_ZSt3minImERKT_S2_S2_, @function
_ZSt3minImERKT_S2_S2_:
.LFB3467:
	.cfi_startproc
	endbr64
	pushq	%rbp
	.cfi_def_cfa_offset 16
	.cfi_offset 6, -16
	movq	%rsp, %rbp
	.cfi_def_cfa_register 6
	movq	%rdi, -8(%rbp)
	movq	%rsi, -16(%rbp)
	movq	-16(%rbp), %rax
	movq	(%rax), %rdx
	movq	-8(%rbp), %rax
	movq	(%rax), %rax
	cmpq	%rax, %rdx
	jnb	.L395
	movq	-16(%rbp), %rax
	jmp	.L396
.L395:
	movq	-8(%rbp), %rax
.L396:
	popq	%rbp
	.cfi_def_cfa 7, 8
	ret
	.cfi_endproc
.LFE3467:
	.size	_ZSt3minImERKT_S2_S2_, .-_ZSt3minImERKT_S2_S2_
	.section	.text._ZN9__gnu_cxx13new_allocatorIPN3hsm18StateValueResetterEEC2ERKS4_,"axG",@progbits,_ZN9__gnu_cxx13new_allocatorIPN3hsm18StateValueResetterEEC5ERKS4_,comdat
	.align 2
	.weak	_ZN9__gnu_cxx13new_allocatorIPN3hsm18StateValueResetterEEC2ERKS4_
	.type	_ZN9__gnu_cxx13new_allocatorIPN3hsm18StateValueResetterEEC2ERKS4_, @function
_ZN9__gnu_cxx13new_allocatorIPN3hsm18StateValueResetterEEC2ERKS4_:
.LFB3469:
	.cfi_startproc
	endbr64
	pushq	%rbp
	.cfi_def_cfa_offset 16
	.cfi_offset 6, -16
	movq	%rsp, %rbp
	.cfi_def_cfa_register 6
	movq	%rdi, -8(%rbp)
	movq	%rsi, -16(%rbp)
	nop
	popq	%rbp
	.cfi_def_cfa 7, 8
	ret
	.cfi_endproc
.LFE3469:
	.size	_ZN9__gnu_cxx13new_allocatorIPN3hsm18StateValueResetterEEC2ERKS4_, .-_ZN9__gnu_cxx13new_allocatorIPN3hsm18StateValueResetterEEC2ERKS4_
	.weak	_ZN9__gnu_cxx13new_allocatorIPN3hsm18StateValueResetterEEC1ERKS4_
	.set	_ZN9__gnu_cxx13new_allocatorIPN3hsm18StateValueResetterEEC1ERKS4_,_ZN9__gnu_cxx13new_allocatorIPN3hsm18StateValueResetterEEC2ERKS4_
	.section	.text._ZNSt12_Vector_baseIPN3hsm18StateValueResetterESaIS2_EE17_Vector_impl_dataC2Ev,"axG",@progbits,_ZNSt12_Vector_baseIPN3hsm18StateValueResetterESaIS2_EE17_Vector_impl_dataC5Ev,comdat
	.align 2
	.weak	_ZNSt12_Vector_baseIPN3hsm18StateValueResetterESaIS2_EE17_Vector_impl_dataC2Ev
	.type	_ZNSt12_Vector_baseIPN3hsm18StateValueResetterESaIS2_EE17_Vector_impl_dataC2Ev, @function
_ZNSt12_Vector_baseIPN3hsm18StateValueResetterESaIS2_EE17_Vector_impl_dataC2Ev:
.LFB3472:
	.cfi_startproc
	endbr64
	pushq	%rbp
	.cfi_def_cfa_offset 16
	.cfi_offset 6, -16
	movq	%rsp, %rbp
	.cfi_def_cfa_register 6
	movq	%rdi, -8(%rbp)
	movq	-8(%rbp), %rax
	movq	$0, (%rax)
	movq	-8(%rbp), %rax
	movq	$0, 8(%rax)
	movq	-8(%rbp), %rax
	movq	$0, 16(%rax)
	nop
	popq	%rbp
	.cfi_def_cfa 7, 8
	ret
	.cfi_endproc
.LFE3472:
	.size	_ZNSt12_Vector_baseIPN3hsm18StateValueResetterESaIS2_EE17_Vector_impl_dataC2Ev, .-_ZNSt12_Vector_baseIPN3hsm18StateValueResetterESaIS2_EE17_Vector_impl_dataC2Ev
	.weak	_ZNSt12_Vector_baseIPN3hsm18StateValueResetterESaIS2_EE17_Vector_impl_dataC1Ev
	.set	_ZNSt12_Vector_baseIPN3hsm18StateValueResetterESaIS2_EE17_Vector_impl_dataC1Ev,_ZNSt12_Vector_baseIPN3hsm18StateValueResetterESaIS2_EE17_Vector_impl_dataC2Ev
	.section	.text._ZNSt12_Vector_baseIPN3hsm18StateValueResetterESaIS2_EE11_M_allocateEm,"axG",@progbits,_ZNSt12_Vector_baseIPN3hsm18StateValueResetterESaIS2_EE11_M_allocateEm,comdat
	.align 2
	.weak	_ZNSt12_Vector_baseIPN3hsm18StateValueResetterESaIS2_EE11_M_allocateEm
	.type	_ZNSt12_Vector_baseIPN3hsm18StateValueResetterESaIS2_EE11_M_allocateEm, @function
_ZNSt12_Vector_baseIPN3hsm18StateValueResetterESaIS2_EE11_M_allocateEm:
.LFB3474:
	.cfi_startproc
	endbr64
	pushq	%rbp
	.cfi_def_cfa_offset 16
	.cfi_offset 6, -16
	movq	%rsp, %rbp
	.cfi_def_cfa_register 6
	subq	$16, %rsp
	movq	%rdi, -8(%rbp)
	movq	%rsi, -16(%rbp)
	cmpq	$0, -16(%rbp)
	je	.L400
	movq	-8(%rbp), %rax
	movq	-16(%rbp), %rdx
	movq	%rdx, %rsi
	movq	%rax, %rdi
	call	_ZNSt16allocator_traitsISaIPN3hsm18StateValueResetterEEE8allocateERS3_m
	jmp	.L402
.L400:
	movl	$0, %eax
.L402:
	leave
	.cfi_def_cfa 7, 8
	ret
	.cfi_endproc
.LFE3474:
	.size	_ZNSt12_Vector_baseIPN3hsm18StateValueResetterESaIS2_EE11_M_allocateEm, .-_ZNSt12_Vector_baseIPN3hsm18StateValueResetterESaIS2_EE11_M_allocateEm
	.section	.text._ZNSt16allocator_traitsISaIPN3hsm18StateValueResetterEEE10deallocateERS3_PS2_m,"axG",@progbits,_ZNSt16allocator_traitsISaIPN3hsm18StateValueResetterEEE10deallocateERS3_PS2_m,comdat
	.weak	_ZNSt16allocator_traitsISaIPN3hsm18StateValueResetterEEE10deallocateERS3_PS2_m
	.type	_ZNSt16allocator_traitsISaIPN3hsm18StateValueResetterEEE10deallocateERS3_PS2_m, @function
_ZNSt16allocator_traitsISaIPN3hsm18StateValueResetterEEE10deallocateERS3_PS2_m:
.LFB3475:
	.cfi_startproc
	endbr64
	pushq	%rbp
	.cfi_def_cfa_offset 16
	.cfi_offset 6, -16
	movq	%rsp, %rbp
	.cfi_def_cfa_register 6
	subq	$32, %rsp
	movq	%rdi, -8(%rbp)
	movq	%rsi, -16(%rbp)
	movq	%rdx, -24(%rbp)
	movq	-24(%rbp), %rdx
	movq	-16(%rbp), %rcx
	movq	-8(%rbp), %rax
	movq	%rcx, %rsi
	movq	%rax, %rdi
	call	_ZN9__gnu_cxx13new_allocatorIPN3hsm18StateValueResetterEE10deallocateEPS3_m
	nop
	leave
	.cfi_def_cfa 7, 8
	ret
	.cfi_endproc
.LFE3475:
	.size	_ZNSt16allocator_traitsISaIPN3hsm18StateValueResetterEEE10deallocateERS3_PS2_m, .-_ZNSt16allocator_traitsISaIPN3hsm18StateValueResetterEEE10deallocateERS3_PS2_m
	.section	.text._ZSt25__uninitialized_default_nIPPN3hsm18StateValueResetterEmET_S4_T0_,"axG",@progbits,_ZSt25__uninitialized_default_nIPPN3hsm18StateValueResetterEmET_S4_T0_,comdat
	.weak	_ZSt25__uninitialized_default_nIPPN3hsm18StateValueResetterEmET_S4_T0_
	.type	_ZSt25__uninitialized_default_nIPPN3hsm18StateValueResetterEmET_S4_T0_, @function
_ZSt25__uninitialized_default_nIPPN3hsm18StateValueResetterEmET_S4_T0_:
.LFB3476:
	.cfi_startproc
	endbr64
	pushq	%rbp
	.cfi_def_cfa_offset 16
	.cfi_offset 6, -16
	movq	%rsp, %rbp
	.cfi_def_cfa_register 6
	subq	$32, %rsp
	movq	%rdi, -24(%rbp)
	movq	%rsi, -32(%rbp)
	movb	$1, -1(%rbp)
	movq	-32(%rbp), %rdx
	movq	-24(%rbp), %rax
	movq	%rdx, %rsi
	movq	%rax, %rdi
	call	_ZNSt27__uninitialized_default_n_1ILb1EE18__uninit_default_nIPPN3hsm18StateValueResetterEmEET_S6_T0_
	leave
	.cfi_def_cfa 7, 8
	ret
	.cfi_endproc
.LFE3476:
	.size	_ZSt25__uninitialized_default_nIPPN3hsm18StateValueResetterEmET_S4_T0_, .-_ZSt25__uninitialized_default_nIPPN3hsm18StateValueResetterEmET_S4_T0_
	.section	.text._ZNSt12_Destroy_auxILb1EE9__destroyIPPN3hsm18StateValueResetterEEEvT_S6_,"axG",@progbits,_ZNSt12_Destroy_auxILb1EE9__destroyIPPN3hsm18StateValueResetterEEEvT_S6_,comdat
	.weak	_ZNSt12_Destroy_auxILb1EE9__destroyIPPN3hsm18StateValueResetterEEEvT_S6_
	.type	_ZNSt12_Destroy_auxILb1EE9__destroyIPPN3hsm18StateValueResetterEEEvT_S6_, @function
_ZNSt12_Destroy_auxILb1EE9__destroyIPPN3hsm18StateValueResetterEEEvT_S6_:
.LFB3477:
	.cfi_startproc
	endbr64
	pushq	%rbp
	.cfi_def_cfa_offset 16
	.cfi_offset 6, -16
	movq	%rsp, %rbp
	.cfi_def_cfa_register 6
	movq	%rdi, -8(%rbp)
	movq	%rsi, -16(%rbp)
	nop
	popq	%rbp
	.cfi_def_cfa 7, 8
	ret
	.cfi_endproc
.LFE3477:
	.size	_ZNSt12_Destroy_auxILb1EE9__destroyIPPN3hsm18StateValueResetterEEEvT_S6_, .-_ZNSt12_Destroy_auxILb1EE9__destroyIPPN3hsm18StateValueResetterEEEvT_S6_
	.section	.text._ZN9__gnu_cxx13new_allocatorIPN3hsm5StateEE10deallocateEPS3_m,"axG",@progbits,_ZN9__gnu_cxx13new_allocatorIPN3hsm5StateEE10deallocateEPS3_m,comdat
	.align 2
	.weak	_ZN9__gnu_cxx13new_allocatorIPN3hsm5StateEE10deallocateEPS3_m
	.type	_ZN9__gnu_cxx13new_allocatorIPN3hsm5StateEE10deallocateEPS3_m, @function
_ZN9__gnu_cxx13new_allocatorIPN3hsm5StateEE10deallocateEPS3_m:
.LFB3478:
	.cfi_startproc
	endbr64
	pushq	%rbp
	.cfi_def_cfa_offset 16
	.cfi_offset 6, -16
	movq	%rsp, %rbp
	.cfi_def_cfa_register 6
	subq	$32, %rsp
	movq	%rdi, -8(%rbp)
	movq	%rsi, -16(%rbp)
	movq	%rdx, -24(%rbp)
	movq	-24(%rbp), %rax
	leaq	0(,%rax,8), %rdx
	movq	-16(%rbp), %rax
	movq	%rdx, %rsi
	movq	%rax, %rdi
	call	_ZdlPvm@PLT
	nop
	leave
	.cfi_def_cfa 7, 8
	ret
	.cfi_endproc
.LFE3478:
	.size	_ZN9__gnu_cxx13new_allocatorIPN3hsm5StateEE10deallocateEPS3_m, .-_ZN9__gnu_cxx13new_allocatorIPN3hsm5StateEE10deallocateEPS3_m
	.section	.text._ZNSt12_Destroy_auxILb1EE9__destroyIPPN3hsm5StateEEEvT_S6_,"axG",@progbits,_ZNSt12_Destroy_auxILb1EE9__destroyIPPN3hsm5StateEEEvT_S6_,comdat
	.weak	_ZNSt12_Destroy_auxILb1EE9__destroyIPPN3hsm5StateEEEvT_S6_
	.type	_ZNSt12_Destroy_auxILb1EE9__destroyIPPN3hsm5StateEEEvT_S6_, @function
_ZNSt12_Destroy_auxILb1EE9__destroyIPPN3hsm5StateEEEvT_S6_:
.LFB3479:
	.cfi_startproc
	endbr64
	pushq	%rbp
	.cfi_def_cfa_offset 16
	.cfi_offset 6, -16
	movq	%rsp, %rbp
	.cfi_def_cfa_register 6
	movq	%rdi, -8(%rbp)
	movq	%rsi, -16(%rbp)
	nop
	popq	%rbp
	.cfi_def_cfa 7, 8
	ret
	.cfi_endproc
.LFE3479:
	.size	_ZNSt12_Destroy_auxILb1EE9__destroyIPPN3hsm5StateEEEvT_S6_, .-_ZNSt12_Destroy_auxILb1EE9__destroyIPPN3hsm5StateEEEvT_S6_
	.section	.text._ZNSt8_Rb_treeIPKN3hsm12StateFactoryESt4pairIKS3_S3_ESt10_Select1stIS6_ESt4lessIS3_ESaIS6_EE15_M_destroy_nodeEPSt13_Rb_tree_nodeIS6_E,"axG",@progbits,_ZNSt8_Rb_treeIPKN3hsm12StateFactoryESt4pairIKS3_S3_ESt10_Select1stIS6_ESt4lessIS3_ESaIS6_EE15_M_destroy_nodeEPSt13_Rb_tree_nodeIS6_E,comdat
	.align 2
	.weak	_ZNSt8_Rb_treeIPKN3hsm12StateFactoryESt4pairIKS3_S3_ESt10_Select1stIS6_ESt4lessIS3_ESaIS6_EE15_M_destroy_nodeEPSt13_Rb_tree_nodeIS6_E
	.type	_ZNSt8_Rb_treeIPKN3hsm12StateFactoryESt4pairIKS3_S3_ESt10_Select1stIS6_ESt4lessIS3_ESaIS6_EE15_M_destroy_nodeEPSt13_Rb_tree_nodeIS6_E, @function
_ZNSt8_Rb_treeIPKN3hsm12StateFactoryESt4pairIKS3_S3_ESt10_Select1stIS6_ESt4lessIS3_ESaIS6_EE15_M_destroy_nodeEPSt13_Rb_tree_nodeIS6_E:
.LFB3480:
	.cfi_startproc
	endbr64
	pushq	%rbp
	.cfi_def_cfa_offset 16
	.cfi_offset 6, -16
	movq	%rsp, %rbp
	.cfi_def_cfa_register 6
	pushq	%rbx
	subq	$24, %rsp
	.cfi_offset 3, -24
	movq	%rdi, -24(%rbp)
	movq	%rsi, -32(%rbp)
	movq	-32(%rbp), %rax
	movq	%rax, %rdi
	call	_ZNSt13_Rb_tree_nodeISt4pairIKPKN3hsm12StateFactoryES4_EE9_M_valptrEv
	movq	%rax, %rbx
	movq	-24(%rbp), %rax
	movq	%rax, %rdi
	call	_ZNSt8_Rb_treeIPKN3hsm12StateFactoryESt4pairIKS3_S3_ESt10_Select1stIS6_ESt4lessIS3_ESaIS6_EE21_M_get_Node_allocatorEv
	movq	%rbx, %rsi
	movq	%rax, %rdi
	call	_ZNSt16allocator_traitsISaISt13_Rb_tree_nodeISt4pairIKPKN3hsm12StateFactoryES5_EEEE7destroyIS7_EEvRS9_PT_
	nop
	movq	-8(%rbp), %rbx
	leave
	.cfi_def_cfa 7, 8
	ret
	.cfi_endproc
.LFE3480:
	.size	_ZNSt8_Rb_treeIPKN3hsm12StateFactoryESt4pairIKS3_S3_ESt10_Select1stIS6_ESt4lessIS3_ESaIS6_EE15_M_destroy_nodeEPSt13_Rb_tree_nodeIS6_E, .-_ZNSt8_Rb_treeIPKN3hsm12StateFactoryESt4pairIKS3_S3_ESt10_Select1stIS6_ESt4lessIS3_ESaIS6_EE15_M_destroy_nodeEPSt13_Rb_tree_nodeIS6_E
	.section	.text._ZNSt8_Rb_treeIPKN3hsm12StateFactoryESt4pairIKS3_S3_ESt10_Select1stIS6_ESt4lessIS3_ESaIS6_EE11_M_put_nodeEPSt13_Rb_tree_nodeIS6_E,"axG",@progbits,_ZNSt8_Rb_treeIPKN3hsm12StateFactoryESt4pairIKS3_S3_ESt10_Select1stIS6_ESt4lessIS3_ESaIS6_EE11_M_put_nodeEPSt13_Rb_tree_nodeIS6_E,comdat
	.align 2
	.weak	_ZNSt8_Rb_treeIPKN3hsm12StateFactoryESt4pairIKS3_S3_ESt10_Select1stIS6_ESt4lessIS3_ESaIS6_EE11_M_put_nodeEPSt13_Rb_tree_nodeIS6_E
	.type	_ZNSt8_Rb_treeIPKN3hsm12StateFactoryESt4pairIKS3_S3_ESt10_Select1stIS6_ESt4lessIS3_ESaIS6_EE11_M_put_nodeEPSt13_Rb_tree_nodeIS6_E, @function
_ZNSt8_Rb_treeIPKN3hsm12StateFactoryESt4pairIKS3_S3_ESt10_Select1stIS6_ESt4lessIS3_ESaIS6_EE11_M_put_nodeEPSt13_Rb_tree_nodeIS6_E:
.LFB3482:
	.cfi_startproc
	.cfi_personality 0x9b,DW.ref.__gxx_personality_v0
	.cfi_lsda 0x1b,.LLSDA3482
	endbr64
	pushq	%rbp
	.cfi_def_cfa_offset 16
	.cfi_offset 6, -16
	movq	%rsp, %rbp
	.cfi_def_cfa_register 6
	subq	$16, %rsp
	movq	%rdi, -8(%rbp)
	movq	%rsi, -16(%rbp)
	movq	-8(%rbp), %rax
	movq	%rax, %rdi
	call	_ZNSt8_Rb_treeIPKN3hsm12StateFactoryESt4pairIKS3_S3_ESt10_Select1stIS6_ESt4lessIS3_ESaIS6_EE21_M_get_Node_allocatorEv
	movq	%rax, %rcx
	movq	-16(%rbp), %rax
	movl	$1, %edx
	movq	%rax, %rsi
	movq	%rcx, %rdi
	call	_ZNSt16allocator_traitsISaISt13_Rb_tree_nodeISt4pairIKPKN3hsm12StateFactoryES5_EEEE10deallocateERS9_PS8_m
	nop
	leave
	.cfi_def_cfa 7, 8
	ret
	.cfi_endproc
.LFE3482:
	.section	.gcc_except_table
.LLSDA3482:
	.byte	0xff
	.byte	0xff
	.byte	0x1
	.uleb128 .LLSDACSE3482-.LLSDACSB3482
.LLSDACSB3482:
.LLSDACSE3482:
	.section	.text._ZNSt8_Rb_treeIPKN3hsm12StateFactoryESt4pairIKS3_S3_ESt10_Select1stIS6_ESt4lessIS3_ESaIS6_EE11_M_put_nodeEPSt13_Rb_tree_nodeIS6_E,"axG",@progbits,_ZNSt8_Rb_treeIPKN3hsm12StateFactoryESt4pairIKS3_S3_ESt10_Select1stIS6_ESt4lessIS3_ESaIS6_EE11_M_put_nodeEPSt13_Rb_tree_nodeIS6_E,comdat
	.size	_ZNSt8_Rb_treeIPKN3hsm12StateFactoryESt4pairIKS3_S3_ESt10_Select1stIS6_ESt4lessIS3_ESaIS6_EE11_M_put_nodeEPSt13_Rb_tree_nodeIS6_E, .-_ZNSt8_Rb_treeIPKN3hsm12StateFactoryESt4pairIKS3_S3_ESt10_Select1stIS6_ESt4lessIS3_ESaIS6_EE11_M_put_nodeEPSt13_Rb_tree_nodeIS6_E
	.section	.text._ZNKSt6vectorIPN3hsm5StateESaIS2_EE8max_sizeEv,"axG",@progbits,_ZNKSt6vectorIPN3hsm5StateESaIS2_EE8max_sizeEv,comdat
	.align 2
	.weak	_ZNKSt6vectorIPN3hsm5StateESaIS2_EE8max_sizeEv
	.type	_ZNKSt6vectorIPN3hsm5StateESaIS2_EE8max_sizeEv, @function
_ZNKSt6vectorIPN3hsm5StateESaIS2_EE8max_sizeEv:
.LFB3487:
	.cfi_startproc
	endbr64
	pushq	%rbp
	.cfi_def_cfa_offset 16
	.cfi_offset 6, -16
	movq	%rsp, %rbp
	.cfi_def_cfa_register 6
	subq	$16, %rsp
	movq	%rdi, -8(%rbp)
	movq	-8(%rbp), %rax
	movq	%rax, %rdi
	call	_ZNKSt12_Vector_baseIPN3hsm5StateESaIS2_EE19_M_get_Tp_allocatorEv
	movq	%rax, %rdi
	call	_ZNSt6vectorIPN3hsm5StateESaIS2_EE11_S_max_sizeERKS3_
	leave
	.cfi_def_cfa 7, 8
	ret
	.cfi_endproc
.LFE3487:
	.size	_ZNKSt6vectorIPN3hsm5StateESaIS2_EE8max_sizeEv, .-_ZNKSt6vectorIPN3hsm5StateESaIS2_EE8max_sizeEv
	.section	.text._ZSt3maxImERKT_S2_S2_,"axG",@progbits,_ZSt3maxImERKT_S2_S2_,comdat
	.weak	_ZSt3maxImERKT_S2_S2_
	.type	_ZSt3maxImERKT_S2_S2_, @function
_ZSt3maxImERKT_S2_S2_:
.LFB3488:
	.cfi_startproc
	endbr64
	pushq	%rbp
	.cfi_def_cfa_offset 16
	.cfi_offset 6, -16
	movq	%rsp, %rbp
	.cfi_def_cfa_register 6
	movq	%rdi, -8(%rbp)
	movq	%rsi, -16(%rbp)
	movq	-8(%rbp), %rax
	movq	(%rax), %rdx
	movq	-16(%rbp), %rax
	movq	(%rax), %rax
	cmpq	%rax, %rdx
	jnb	.L414
	movq	-16(%rbp), %rax
	jmp	.L415
.L414:
	movq	-8(%rbp), %rax
.L415:
	popq	%rbp
	.cfi_def_cfa 7, 8
	ret
	.cfi_endproc
.LFE3488:
	.size	_ZSt3maxImERKT_S2_S2_, .-_ZSt3maxImERKT_S2_S2_
	.section	.text._ZNSt16allocator_traitsISaIPN3hsm5StateEEE8allocateERS3_m,"axG",@progbits,_ZNSt16allocator_traitsISaIPN3hsm5StateEEE8allocateERS3_m,comdat
	.weak	_ZNSt16allocator_traitsISaIPN3hsm5StateEEE8allocateERS3_m
	.type	_ZNSt16allocator_traitsISaIPN3hsm5StateEEE8allocateERS3_m, @function
_ZNSt16allocator_traitsISaIPN3hsm5StateEEE8allocateERS3_m:
.LFB3489:
	.cfi_startproc
	endbr64
	pushq	%rbp
	.cfi_def_cfa_offset 16
	.cfi_offset 6, -16
	movq	%rsp, %rbp
	.cfi_def_cfa_register 6
	subq	$16, %rsp
	movq	%rdi, -8(%rbp)
	movq	%rsi, -16(%rbp)
	movq	-16(%rbp), %rcx
	movq	-8(%rbp), %rax
	movl	$0, %edx
	movq	%rcx, %rsi
	movq	%rax, %rdi
	call	_ZN9__gnu_cxx13new_allocatorIPN3hsm5StateEE8allocateEmPKv
	leave
	.cfi_def_cfa 7, 8
	ret
	.cfi_endproc
.LFE3489:
	.size	_ZNSt16allocator_traitsISaIPN3hsm5StateEEE8allocateERS3_m, .-_ZNSt16allocator_traitsISaIPN3hsm5StateEEE8allocateERS3_m
	.section	.text._ZNSt6vectorIPN3hsm5StateESaIS2_EE14_S_do_relocateEPS2_S5_S5_RS3_St17integral_constantIbLb1EE,"axG",@progbits,_ZNSt6vectorIPN3hsm5StateESaIS2_EE14_S_do_relocateEPS2_S5_S5_RS3_St17integral_constantIbLb1EE,comdat
	.weak	_ZNSt6vectorIPN3hsm5StateESaIS2_EE14_S_do_relocateEPS2_S5_S5_RS3_St17integral_constantIbLb1EE
	.type	_ZNSt6vectorIPN3hsm5StateESaIS2_EE14_S_do_relocateEPS2_S5_S5_RS3_St17integral_constantIbLb1EE, @function
_ZNSt6vectorIPN3hsm5StateESaIS2_EE14_S_do_relocateEPS2_S5_S5_RS3_St17integral_constantIbLb1EE:
.LFB3490:
	.cfi_startproc
	endbr64
	pushq	%rbp
	.cfi_def_cfa_offset 16
	.cfi_offset 6, -16
	movq	%rsp, %rbp
	.cfi_def_cfa_register 6
	subq	$32, %rsp
	movq	%rdi, -8(%rbp)
	movq	%rsi, -16(%rbp)
	movq	%rdx, -24(%rbp)
	movq	%rcx, -32(%rbp)
	movq	-32(%rbp), %rcx
	movq	-24(%rbp), %rdx
	movq	-16(%rbp), %rsi
	movq	-8(%rbp), %rax
	movq	%rax, %rdi
	call	_ZSt12__relocate_aIPPN3hsm5StateES3_SaIS2_EET0_T_S6_S5_RT1_
	leave
	.cfi_def_cfa 7, 8
	ret
	.cfi_endproc
.LFE3490:
	.size	_ZNSt6vectorIPN3hsm5StateESaIS2_EE14_S_do_relocateEPS2_S5_S5_RS3_St17integral_constantIbLb1EE, .-_ZNSt6vectorIPN3hsm5StateESaIS2_EE14_S_do_relocateEPS2_S5_S5_RS3_St17integral_constantIbLb1EE
	.section	.text._ZSt32__make_move_if_noexcept_iteratorIPN3hsm5StateESt13move_iteratorIPS2_EET0_PT_,"axG",@progbits,_ZSt32__make_move_if_noexcept_iteratorIPN3hsm5StateESt13move_iteratorIPS2_EET0_PT_,comdat
	.weak	_ZSt32__make_move_if_noexcept_iteratorIPN3hsm5StateESt13move_iteratorIPS2_EET0_PT_
	.type	_ZSt32__make_move_if_noexcept_iteratorIPN3hsm5StateESt13move_iteratorIPS2_EET0_PT_, @function
_ZSt32__make_move_if_noexcept_iteratorIPN3hsm5StateESt13move_iteratorIPS2_EET0_PT_:
.LFB3491:
	.cfi_startproc
	endbr64
	pushq	%rbp
	.cfi_def_cfa_offset 16
	.cfi_offset 6, -16
	movq	%rsp, %rbp
	.cfi_def_cfa_register 6
	subq	$32, %rsp
	movq	%rdi, -24(%rbp)
	movq	%fs:40, %rax
	movq	%rax, -8(%rbp)
	xorl	%eax, %eax
	movq	-24(%rbp), %rdx
	leaq	-16(%rbp), %rax
	movq	%rdx, %rsi
	movq	%rax, %rdi
	call	_ZNSt13move_iteratorIPPN3hsm5StateEEC1ES3_
	movq	-16(%rbp), %rax
	movq	-8(%rbp), %rdx
	subq	%fs:40, %rdx
	je	.L422
	call	__stack_chk_fail@PLT
.L422:
	leave
	.cfi_def_cfa 7, 8
	ret
	.cfi_endproc
.LFE3491:
	.size	_ZSt32__make_move_if_noexcept_iteratorIPN3hsm5StateESt13move_iteratorIPS2_EET0_PT_, .-_ZSt32__make_move_if_noexcept_iteratorIPN3hsm5StateESt13move_iteratorIPS2_EET0_PT_
	.section	.text._ZSt22__uninitialized_copy_aISt13move_iteratorIPPN3hsm5StateEES4_S3_ET0_T_S7_S6_RSaIT1_E,"axG",@progbits,_ZSt22__uninitialized_copy_aISt13move_iteratorIPPN3hsm5StateEES4_S3_ET0_T_S7_S6_RSaIT1_E,comdat
	.weak	_ZSt22__uninitialized_copy_aISt13move_iteratorIPPN3hsm5StateEES4_S3_ET0_T_S7_S6_RSaIT1_E
	.type	_ZSt22__uninitialized_copy_aISt13move_iteratorIPPN3hsm5StateEES4_S3_ET0_T_S7_S6_RSaIT1_E, @function
_ZSt22__uninitialized_copy_aISt13move_iteratorIPPN3hsm5StateEES4_S3_ET0_T_S7_S6_RSaIT1_E:
.LFB3492:
	.cfi_startproc
	endbr64
	pushq	%rbp
	.cfi_def_cfa_offset 16
	.cfi_offset 6, -16
	movq	%rsp, %rbp
	.cfi_def_cfa_register 6
	subq	$32, %rsp
	movq	%rdi, -8(%rbp)
	movq	%rsi, -16(%rbp)
	movq	%rdx, -24(%rbp)
	movq	%rcx, -32(%rbp)
	movq	-24(%rbp), %rdx
	movq	-16(%rbp), %rcx
	movq	-8(%rbp), %rax
	movq	%rcx, %rsi
	movq	%rax, %rdi
	call	_ZSt18uninitialized_copyISt13move_iteratorIPPN3hsm5StateEES4_ET0_T_S7_S6_
	leave
	.cfi_def_cfa 7, 8
	ret
	.cfi_endproc
.LFE3492:
	.size	_ZSt22__uninitialized_copy_aISt13move_iteratorIPPN3hsm5StateEES4_S3_ET0_T_S7_S6_RSaIT1_E, .-_ZSt22__uninitialized_copy_aISt13move_iteratorIPPN3hsm5StateEES4_S3_ET0_T_S7_S6_RSaIT1_E
	.section	.text._ZNK9__gnu_cxx13new_allocatorIPN3hsm18StateValueResetterEE8max_sizeEv,"axG",@progbits,_ZNK9__gnu_cxx13new_allocatorIPN3hsm18StateValueResetterEE8max_sizeEv,comdat
	.align 2
	.weak	_ZNK9__gnu_cxx13new_allocatorIPN3hsm18StateValueResetterEE8max_sizeEv
	.type	_ZNK9__gnu_cxx13new_allocatorIPN3hsm18StateValueResetterEE8max_sizeEv, @function
_ZNK9__gnu_cxx13new_allocatorIPN3hsm18StateValueResetterEE8max_sizeEv:
.LFB3519:
	.cfi_startproc
	endbr64
	pushq	%rbp
	.cfi_def_cfa_offset 16
	.cfi_offset 6, -16
	movq	%rsp, %rbp
	.cfi_def_cfa_register 6
	subq	$16, %rsp
	movq	%rdi, -8(%rbp)
	movq	-8(%rbp), %rax
	movq	%rax, %rdi
	call	_ZNK9__gnu_cxx13new_allocatorIPN3hsm18StateValueResetterEE11_M_max_sizeEv
	leave
	.cfi_def_cfa 7, 8
	ret
	.cfi_endproc
.LFE3519:
	.size	_ZNK9__gnu_cxx13new_allocatorIPN3hsm18StateValueResetterEE8max_sizeEv, .-_ZNK9__gnu_cxx13new_allocatorIPN3hsm18StateValueResetterEE8max_sizeEv
	.section	.text._ZNSt16allocator_traitsISaIPN3hsm18StateValueResetterEEE8allocateERS3_m,"axG",@progbits,_ZNSt16allocator_traitsISaIPN3hsm18StateValueResetterEEE8allocateERS3_m,comdat
	.weak	_ZNSt16allocator_traitsISaIPN3hsm18StateValueResetterEEE8allocateERS3_m
	.type	_ZNSt16allocator_traitsISaIPN3hsm18StateValueResetterEEE8allocateERS3_m, @function
_ZNSt16allocator_traitsISaIPN3hsm18StateValueResetterEEE8allocateERS3_m:
.LFB3520:
	.cfi_startproc
	endbr64
	pushq	%rbp
	.cfi_def_cfa_offset 16
	.cfi_offset 6, -16
	movq	%rsp, %rbp
	.cfi_def_cfa_register 6
	subq	$16, %rsp
	movq	%rdi, -8(%rbp)
	movq	%rsi, -16(%rbp)
	movq	-16(%rbp), %rcx
	movq	-8(%rbp), %rax
	movl	$0, %edx
	movq	%rcx, %rsi
	movq	%rax, %rdi
	call	_ZN9__gnu_cxx13new_allocatorIPN3hsm18StateValueResetterEE8allocateEmPKv
	leave
	.cfi_def_cfa 7, 8
	ret
	.cfi_endproc
.LFE3520:
	.size	_ZNSt16allocator_traitsISaIPN3hsm18StateValueResetterEEE8allocateERS3_m, .-_ZNSt16allocator_traitsISaIPN3hsm18StateValueResetterEEE8allocateERS3_m
	.section	.text._ZN9__gnu_cxx13new_allocatorIPN3hsm18StateValueResetterEE10deallocateEPS3_m,"axG",@progbits,_ZN9__gnu_cxx13new_allocatorIPN3hsm18StateValueResetterEE10deallocateEPS3_m,comdat
	.align 2
	.weak	_ZN9__gnu_cxx13new_allocatorIPN3hsm18StateValueResetterEE10deallocateEPS3_m
	.type	_ZN9__gnu_cxx13new_allocatorIPN3hsm18StateValueResetterEE10deallocateEPS3_m, @function
_ZN9__gnu_cxx13new_allocatorIPN3hsm18StateValueResetterEE10deallocateEPS3_m:
.LFB3521:
	.cfi_startproc
	endbr64
	pushq	%rbp
	.cfi_def_cfa_offset 16
	.cfi_offset 6, -16
	movq	%rsp, %rbp
	.cfi_def_cfa_register 6
	subq	$32, %rsp
	movq	%rdi, -8(%rbp)
	movq	%rsi, -16(%rbp)
	movq	%rdx, -24(%rbp)
	movq	-24(%rbp), %rax
	leaq	0(,%rax,8), %rdx
	movq	-16(%rbp), %rax
	movq	%rdx, %rsi
	movq	%rax, %rdi
	call	_ZdlPvm@PLT
	nop
	leave
	.cfi_def_cfa 7, 8
	ret
	.cfi_endproc
.LFE3521:
	.size	_ZN9__gnu_cxx13new_allocatorIPN3hsm18StateValueResetterEE10deallocateEPS3_m, .-_ZN9__gnu_cxx13new_allocatorIPN3hsm18StateValueResetterEE10deallocateEPS3_m
	.section	.text._ZSt11__addressofIPN3hsm18StateValueResetterEEPT_RS3_,"axG",@progbits,_ZSt11__addressofIPN3hsm18StateValueResetterEEPT_RS3_,comdat
	.weak	_ZSt11__addressofIPN3hsm18StateValueResetterEEPT_RS3_
	.type	_ZSt11__addressofIPN3hsm18StateValueResetterEEPT_RS3_, @function
_ZSt11__addressofIPN3hsm18StateValueResetterEEPT_RS3_:
.LFB3523:
	.cfi_startproc
	endbr64
	pushq	%rbp
	.cfi_def_cfa_offset 16
	.cfi_offset 6, -16
	movq	%rsp, %rbp
	.cfi_def_cfa_register 6
	movq	%rdi, -8(%rbp)
	movq	-8(%rbp), %rax
	popq	%rbp
	.cfi_def_cfa 7, 8
	ret
	.cfi_endproc
.LFE3523:
	.size	_ZSt11__addressofIPN3hsm18StateValueResetterEEPT_RS3_, .-_ZSt11__addressofIPN3hsm18StateValueResetterEEPT_RS3_
	.section	.text._ZNSt27__uninitialized_default_n_1ILb1EE18__uninit_default_nIPPN3hsm18StateValueResetterEmEET_S6_T0_,"axG",@progbits,_ZNSt27__uninitialized_default_n_1ILb1EE18__uninit_default_nIPPN3hsm18StateValueResetterEmEET_S6_T0_,comdat
	.weak	_ZNSt27__uninitialized_default_n_1ILb1EE18__uninit_default_nIPPN3hsm18StateValueResetterEmEET_S6_T0_
	.type	_ZNSt27__uninitialized_default_n_1ILb1EE18__uninit_default_nIPPN3hsm18StateValueResetterEmEET_S6_T0_, @function
_ZNSt27__uninitialized_default_n_1ILb1EE18__uninit_default_nIPPN3hsm18StateValueResetterEmEET_S6_T0_:
.LFB3522:
	.cfi_startproc
	endbr64
	pushq	%rbp
	.cfi_def_cfa_offset 16
	.cfi_offset 6, -16
	movq	%rsp, %rbp
	.cfi_def_cfa_register 6
	subq	$32, %rsp
	movq	%rdi, -24(%rbp)
	movq	%rsi, -32(%rbp)
	cmpq	$0, -32(%rbp)
	je	.L433
	movq	-24(%rbp), %rax
	movq	%rax, %rdi
	call	_ZSt11__addressofIPN3hsm18StateValueResetterEEPT_RS3_
	movq	%rax, -8(%rbp)
	movq	-8(%rbp), %rax
	movq	%rax, %rdi
	call	_ZSt10_ConstructIPN3hsm18StateValueResetterEJEEvPT_DpOT0_
	addq	$8, -24(%rbp)
	movq	-32(%rbp), %rax
	leaq	-1(%rax), %rcx
	movq	-8(%rbp), %rdx
	movq	-24(%rbp), %rax
	movq	%rcx, %rsi
	movq	%rax, %rdi
	call	_ZSt6fill_nIPPN3hsm18StateValueResetterEmS2_ET_S4_T0_RKT1_
	movq	%rax, -24(%rbp)
.L433:
	movq	-24(%rbp), %rax
	leave
	.cfi_def_cfa 7, 8
	ret
	.cfi_endproc
.LFE3522:
	.size	_ZNSt27__uninitialized_default_n_1ILb1EE18__uninit_default_nIPPN3hsm18StateValueResetterEmEET_S6_T0_, .-_ZNSt27__uninitialized_default_n_1ILb1EE18__uninit_default_nIPPN3hsm18StateValueResetterEmEET_S6_T0_
	.section	.text._ZNSt8_Rb_treeIPKN3hsm12StateFactoryESt4pairIKS3_S3_ESt10_Select1stIS6_ESt4lessIS3_ESaIS6_EE21_M_get_Node_allocatorEv,"axG",@progbits,_ZNSt8_Rb_treeIPKN3hsm12StateFactoryESt4pairIKS3_S3_ESt10_Select1stIS6_ESt4lessIS3_ESaIS6_EE21_M_get_Node_allocatorEv,comdat
	.align 2
	.weak	_ZNSt8_Rb_treeIPKN3hsm12StateFactoryESt4pairIKS3_S3_ESt10_Select1stIS6_ESt4lessIS3_ESaIS6_EE21_M_get_Node_allocatorEv
	.type	_ZNSt8_Rb_treeIPKN3hsm12StateFactoryESt4pairIKS3_S3_ESt10_Select1stIS6_ESt4lessIS3_ESaIS6_EE21_M_get_Node_allocatorEv, @function
_ZNSt8_Rb_treeIPKN3hsm12StateFactoryESt4pairIKS3_S3_ESt10_Select1stIS6_ESt4lessIS3_ESaIS6_EE21_M_get_Node_allocatorEv:
.LFB3524:
	.cfi_startproc
	endbr64
	pushq	%rbp
	.cfi_def_cfa_offset 16
	.cfi_offset 6, -16
	movq	%rsp, %rbp
	.cfi_def_cfa_register 6
	movq	%rdi, -8(%rbp)
	movq	-8(%rbp), %rax
	popq	%rbp
	.cfi_def_cfa 7, 8
	ret
	.cfi_endproc
.LFE3524:
	.size	_ZNSt8_Rb_treeIPKN3hsm12StateFactoryESt4pairIKS3_S3_ESt10_Select1stIS6_ESt4lessIS3_ESaIS6_EE21_M_get_Node_allocatorEv, .-_ZNSt8_Rb_treeIPKN3hsm12StateFactoryESt4pairIKS3_S3_ESt10_Select1stIS6_ESt4lessIS3_ESaIS6_EE21_M_get_Node_allocatorEv
	.section	.text._ZNSt13_Rb_tree_nodeISt4pairIKPKN3hsm12StateFactoryES4_EE9_M_valptrEv,"axG",@progbits,_ZNSt13_Rb_tree_nodeISt4pairIKPKN3hsm12StateFactoryES4_EE9_M_valptrEv,comdat
	.align 2
	.weak	_ZNSt13_Rb_tree_nodeISt4pairIKPKN3hsm12StateFactoryES4_EE9_M_valptrEv
	.type	_ZNSt13_Rb_tree_nodeISt4pairIKPKN3hsm12StateFactoryES4_EE9_M_valptrEv, @function
_ZNSt13_Rb_tree_nodeISt4pairIKPKN3hsm12StateFactoryES4_EE9_M_valptrEv:
.LFB3525:
	.cfi_startproc
	endbr64
	pushq	%rbp
	.cfi_def_cfa_offset 16
	.cfi_offset 6, -16
	movq	%rsp, %rbp
	.cfi_def_cfa_register 6
	subq	$16, %rsp
	movq	%rdi, -8(%rbp)
	movq	-8(%rbp), %rax
	addq	$32, %rax
	movq	%rax, %rdi
	call	_ZN9__gnu_cxx16__aligned_membufISt4pairIKPKN3hsm12StateFactoryES5_EE6_M_ptrEv
	leave
	.cfi_def_cfa 7, 8
	ret
	.cfi_endproc
.LFE3525:
	.size	_ZNSt13_Rb_tree_nodeISt4pairIKPKN3hsm12StateFactoryES4_EE9_M_valptrEv, .-_ZNSt13_Rb_tree_nodeISt4pairIKPKN3hsm12StateFactoryES4_EE9_M_valptrEv
	.section	.text._ZNSt16allocator_traitsISaISt13_Rb_tree_nodeISt4pairIKPKN3hsm12StateFactoryES5_EEEE7destroyIS7_EEvRS9_PT_,"axG",@progbits,_ZNSt16allocator_traitsISaISt13_Rb_tree_nodeISt4pairIKPKN3hsm12StateFactoryES5_EEEE7destroyIS7_EEvRS9_PT_,comdat
	.weak	_ZNSt16allocator_traitsISaISt13_Rb_tree_nodeISt4pairIKPKN3hsm12StateFactoryES5_EEEE7destroyIS7_EEvRS9_PT_
	.type	_ZNSt16allocator_traitsISaISt13_Rb_tree_nodeISt4pairIKPKN3hsm12StateFactoryES5_EEEE7destroyIS7_EEvRS9_PT_, @function
_ZNSt16allocator_traitsISaISt13_Rb_tree_nodeISt4pairIKPKN3hsm12StateFactoryES5_EEEE7destroyIS7_EEvRS9_PT_:
.LFB3526:
	.cfi_startproc
	endbr64
	pushq	%rbp
	.cfi_def_cfa_offset 16
	.cfi_offset 6, -16
	movq	%rsp, %rbp
	.cfi_def_cfa_register 6
	subq	$16, %rsp
	movq	%rdi, -8(%rbp)
	movq	%rsi, -16(%rbp)
	movq	-16(%rbp), %rdx
	movq	-8(%rbp), %rax
	movq	%rdx, %rsi
	movq	%rax, %rdi
	call	_ZN9__gnu_cxx13new_allocatorISt13_Rb_tree_nodeISt4pairIKPKN3hsm12StateFactoryES6_EEE7destroyIS8_EEvPT_
	nop
	leave
	.cfi_def_cfa 7, 8
	ret
	.cfi_endproc
.LFE3526:
	.size	_ZNSt16allocator_traitsISaISt13_Rb_tree_nodeISt4pairIKPKN3hsm12StateFactoryES5_EEEE7destroyIS7_EEvRS9_PT_, .-_ZNSt16allocator_traitsISaISt13_Rb_tree_nodeISt4pairIKPKN3hsm12StateFactoryES5_EEEE7destroyIS7_EEvRS9_PT_
	.section	.text._ZNSt16allocator_traitsISaISt13_Rb_tree_nodeISt4pairIKPKN3hsm12StateFactoryES5_EEEE10deallocateERS9_PS8_m,"axG",@progbits,_ZNSt16allocator_traitsISaISt13_Rb_tree_nodeISt4pairIKPKN3hsm12StateFactoryES5_EEEE10deallocateERS9_PS8_m,comdat
	.weak	_ZNSt16allocator_traitsISaISt13_Rb_tree_nodeISt4pairIKPKN3hsm12StateFactoryES5_EEEE10deallocateERS9_PS8_m
	.type	_ZNSt16allocator_traitsISaISt13_Rb_tree_nodeISt4pairIKPKN3hsm12StateFactoryES5_EEEE10deallocateERS9_PS8_m, @function
_ZNSt16allocator_traitsISaISt13_Rb_tree_nodeISt4pairIKPKN3hsm12StateFactoryES5_EEEE10deallocateERS9_PS8_m:
.LFB3527:
	.cfi_startproc
	endbr64
	pushq	%rbp
	.cfi_def_cfa_offset 16
	.cfi_offset 6, -16
	movq	%rsp, %rbp
	.cfi_def_cfa_register 6
	subq	$32, %rsp
	movq	%rdi, -8(%rbp)
	movq	%rsi, -16(%rbp)
	movq	%rdx, -24(%rbp)
	movq	-24(%rbp), %rdx
	movq	-16(%rbp), %rcx
	movq	-8(%rbp), %rax
	movq	%rcx, %rsi
	movq	%rax, %rdi
	call	_ZN9__gnu_cxx13new_allocatorISt13_Rb_tree_nodeISt4pairIKPKN3hsm12StateFactoryES6_EEE10deallocateEPS9_m
	nop
	leave
	.cfi_def_cfa 7, 8
	ret
	.cfi_endproc
.LFE3527:
	.size	_ZNSt16allocator_traitsISaISt13_Rb_tree_nodeISt4pairIKPKN3hsm12StateFactoryES5_EEEE10deallocateERS9_PS8_m, .-_ZNSt16allocator_traitsISaISt13_Rb_tree_nodeISt4pairIKPKN3hsm12StateFactoryES5_EEEE10deallocateERS9_PS8_m
	.section	.text._ZNSt6vectorIPN3hsm5StateESaIS2_EE11_S_max_sizeERKS3_,"axG",@progbits,_ZNSt6vectorIPN3hsm5StateESaIS2_EE11_S_max_sizeERKS3_,comdat
	.weak	_ZNSt6vectorIPN3hsm5StateESaIS2_EE11_S_max_sizeERKS3_
	.type	_ZNSt6vectorIPN3hsm5StateESaIS2_EE11_S_max_sizeERKS3_, @function
_ZNSt6vectorIPN3hsm5StateESaIS2_EE11_S_max_sizeERKS3_:
.LFB3528:
	.cfi_startproc
	endbr64
	pushq	%rbp
	.cfi_def_cfa_offset 16
	.cfi_offset 6, -16
	movq	%rsp, %rbp
	.cfi_def_cfa_register 6
	subq	$48, %rsp
	movq	%rdi, -40(%rbp)
	movq	%fs:40, %rax
	movq	%rax, -8(%rbp)
	xorl	%eax, %eax
	movabsq	$1152921504606846975, %rax
	movq	%rax, -24(%rbp)
	movq	-40(%rbp), %rax
	movq	%rax, %rdi
	call	_ZNSt16allocator_traitsISaIPN3hsm5StateEEE8max_sizeERKS3_
	movq	%rax, -16(%rbp)
	leaq	-16(%rbp), %rdx
	leaq	-24(%rbp), %rax
	movq	%rdx, %rsi
	movq	%rax, %rdi
	call	_ZSt3minImERKT_S2_S2_
	movq	(%rax), %rax
	movq	-8(%rbp), %rdx
	subq	%fs:40, %rdx
	je	.L443
	call	__stack_chk_fail@PLT
.L443:
	leave
	.cfi_def_cfa 7, 8
	ret
	.cfi_endproc
.LFE3528:
	.size	_ZNSt6vectorIPN3hsm5StateESaIS2_EE11_S_max_sizeERKS3_, .-_ZNSt6vectorIPN3hsm5StateESaIS2_EE11_S_max_sizeERKS3_
	.section	.text._ZNKSt12_Vector_baseIPN3hsm5StateESaIS2_EE19_M_get_Tp_allocatorEv,"axG",@progbits,_ZNKSt12_Vector_baseIPN3hsm5StateESaIS2_EE19_M_get_Tp_allocatorEv,comdat
	.align 2
	.weak	_ZNKSt12_Vector_baseIPN3hsm5StateESaIS2_EE19_M_get_Tp_allocatorEv
	.type	_ZNKSt12_Vector_baseIPN3hsm5StateESaIS2_EE19_M_get_Tp_allocatorEv, @function
_ZNKSt12_Vector_baseIPN3hsm5StateESaIS2_EE19_M_get_Tp_allocatorEv:
.LFB3529:
	.cfi_startproc
	endbr64
	pushq	%rbp
	.cfi_def_cfa_offset 16
	.cfi_offset 6, -16
	movq	%rsp, %rbp
	.cfi_def_cfa_register 6
	movq	%rdi, -8(%rbp)
	movq	-8(%rbp), %rax
	popq	%rbp
	.cfi_def_cfa 7, 8
	ret
	.cfi_endproc
.LFE3529:
	.size	_ZNKSt12_Vector_baseIPN3hsm5StateESaIS2_EE19_M_get_Tp_allocatorEv, .-_ZNKSt12_Vector_baseIPN3hsm5StateESaIS2_EE19_M_get_Tp_allocatorEv
	.section	.text._ZNK9__gnu_cxx13new_allocatorIPN3hsm5StateEE11_M_max_sizeEv,"axG",@progbits,_ZNK9__gnu_cxx13new_allocatorIPN3hsm5StateEE11_M_max_sizeEv,comdat
	.align 2
	.weak	_ZNK9__gnu_cxx13new_allocatorIPN3hsm5StateEE11_M_max_sizeEv
	.type	_ZNK9__gnu_cxx13new_allocatorIPN3hsm5StateEE11_M_max_sizeEv, @function
_ZNK9__gnu_cxx13new_allocatorIPN3hsm5StateEE11_M_max_sizeEv:
.LFB3531:
	.cfi_startproc
	endbr64
	pushq	%rbp
	.cfi_def_cfa_offset 16
	.cfi_offset 6, -16
	movq	%rsp, %rbp
	.cfi_def_cfa_register 6
	movq	%rdi, -8(%rbp)
	movabsq	$1152921504606846975, %rax
	popq	%rbp
	.cfi_def_cfa 7, 8
	ret
	.cfi_endproc
.LFE3531:
	.size	_ZNK9__gnu_cxx13new_allocatorIPN3hsm5StateEE11_M_max_sizeEv, .-_ZNK9__gnu_cxx13new_allocatorIPN3hsm5StateEE11_M_max_sizeEv
	.section	.text._ZN9__gnu_cxx13new_allocatorIPN3hsm5StateEE8allocateEmPKv,"axG",@progbits,_ZN9__gnu_cxx13new_allocatorIPN3hsm5StateEE8allocateEmPKv,comdat
	.align 2
	.weak	_ZN9__gnu_cxx13new_allocatorIPN3hsm5StateEE8allocateEmPKv
	.type	_ZN9__gnu_cxx13new_allocatorIPN3hsm5StateEE8allocateEmPKv, @function
_ZN9__gnu_cxx13new_allocatorIPN3hsm5StateEE8allocateEmPKv:
.LFB3530:
	.cfi_startproc
	endbr64
	pushq	%rbp
	.cfi_def_cfa_offset 16
	.cfi_offset 6, -16
	movq	%rsp, %rbp
	.cfi_def_cfa_register 6
	subq	$32, %rsp
	movq	%rdi, -8(%rbp)
	movq	%rsi, -16(%rbp)
	movq	%rdx, -24(%rbp)
	movq	-8(%rbp), %rax
	movq	%rax, %rdi
	call	_ZNK9__gnu_cxx13new_allocatorIPN3hsm5StateEE11_M_max_sizeEv
	cmpq	%rax, -16(%rbp)
	seta	%al
	movzbl	%al, %eax
	testq	%rax, %rax
	setne	%al
	testb	%al, %al
	je	.L449
	movabsq	$2305843009213693951, %rax
	cmpq	%rax, -16(%rbp)
	jbe	.L450
	call	_ZSt28__throw_bad_array_new_lengthv@PLT
.L450:
	call	_ZSt17__throw_bad_allocv@PLT
.L449:
	movq	-16(%rbp), %rax
	salq	$3, %rax
	movq	%rax, %rdi
	call	_Znwm@PLT
	leave
	.cfi_def_cfa 7, 8
	ret
	.cfi_endproc
.LFE3530:
	.size	_ZN9__gnu_cxx13new_allocatorIPN3hsm5StateEE8allocateEmPKv, .-_ZN9__gnu_cxx13new_allocatorIPN3hsm5StateEE8allocateEmPKv
	.section	.text._ZSt12__relocate_aIPPN3hsm5StateES3_SaIS2_EET0_T_S6_S5_RT1_,"axG",@progbits,_ZSt12__relocate_aIPPN3hsm5StateES3_SaIS2_EET0_T_S6_S5_RT1_,comdat
	.weak	_ZSt12__relocate_aIPPN3hsm5StateES3_SaIS2_EET0_T_S6_S5_RT1_
	.type	_ZSt12__relocate_aIPPN3hsm5StateES3_SaIS2_EET0_T_S6_S5_RT1_, @function
_ZSt12__relocate_aIPPN3hsm5StateES3_SaIS2_EET0_T_S6_S5_RT1_:
.LFB3532:
	.cfi_startproc
	endbr64
	pushq	%rbp
	.cfi_def_cfa_offset 16
	.cfi_offset 6, -16
	movq	%rsp, %rbp
	.cfi_def_cfa_register 6
	pushq	%r12
	pushq	%rbx
	subq	$32, %rsp
	.cfi_offset 12, -24
	.cfi_offset 3, -32
	movq	%rdi, -24(%rbp)
	movq	%rsi, -32(%rbp)
	movq	%rdx, -40(%rbp)
	movq	%rcx, -48(%rbp)
	movq	-40(%rbp), %rax
	movq	%rax, %rdi
	call	_ZSt12__niter_baseIPPN3hsm5StateEET_S4_
	movq	%rax, %r12
	movq	-32(%rbp), %rax
	movq	%rax, %rdi
	call	_ZSt12__niter_baseIPPN3hsm5StateEET_S4_
	movq	%rax, %rbx
	movq	-24(%rbp), %rax
	movq	%rax, %rdi
	call	_ZSt12__niter_baseIPPN3hsm5StateEET_S4_
	movq	%rax, %rdi
	movq	-48(%rbp), %rax
	movq	%rax, %rcx
	movq	%r12, %rdx
	movq	%rbx, %rsi
	call	_ZSt14__relocate_a_1IPN3hsm5StateES2_ENSt9enable_ifIXsrSt24__is_bitwise_relocatableIT_vE5valueEPS5_E4typeES7_S7_S7_RSaIT0_E
	addq	$32, %rsp
	popq	%rbx
	popq	%r12
	popq	%rbp
	.cfi_def_cfa 7, 8
	ret
	.cfi_endproc
.LFE3532:
	.size	_ZSt12__relocate_aIPPN3hsm5StateES3_SaIS2_EET0_T_S6_S5_RT1_, .-_ZSt12__relocate_aIPPN3hsm5StateES3_SaIS2_EET0_T_S6_S5_RT1_
	.section	.text._ZNSt13move_iteratorIPPN3hsm5StateEEC2ES3_,"axG",@progbits,_ZNSt13move_iteratorIPPN3hsm5StateEEC5ES3_,comdat
	.align 2
	.weak	_ZNSt13move_iteratorIPPN3hsm5StateEEC2ES3_
	.type	_ZNSt13move_iteratorIPPN3hsm5StateEEC2ES3_, @function
_ZNSt13move_iteratorIPPN3hsm5StateEEC2ES3_:
.LFB3534:
	.cfi_startproc
	endbr64
	pushq	%rbp
	.cfi_def_cfa_offset 16
	.cfi_offset 6, -16
	movq	%rsp, %rbp
	.cfi_def_cfa_register 6
	subq	$16, %rsp
	movq	%rdi, -8(%rbp)
	movq	%rsi, -16(%rbp)
	leaq	-16(%rbp), %rax
	movq	%rax, %rdi
	call	_ZSt4moveIRPPN3hsm5StateEEONSt16remove_referenceIT_E4typeEOS6_
	movq	(%rax), %rdx
	movq	-8(%rbp), %rax
	movq	%rdx, (%rax)
	nop
	leave
	.cfi_def_cfa 7, 8
	ret
	.cfi_endproc
.LFE3534:
	.size	_ZNSt13move_iteratorIPPN3hsm5StateEEC2ES3_, .-_ZNSt13move_iteratorIPPN3hsm5StateEEC2ES3_
	.weak	_ZNSt13move_iteratorIPPN3hsm5StateEEC1ES3_
	.set	_ZNSt13move_iteratorIPPN3hsm5StateEEC1ES3_,_ZNSt13move_iteratorIPPN3hsm5StateEEC2ES3_
	.section	.text._ZSt18uninitialized_copyISt13move_iteratorIPPN3hsm5StateEES4_ET0_T_S7_S6_,"axG",@progbits,_ZSt18uninitialized_copyISt13move_iteratorIPPN3hsm5StateEES4_ET0_T_S7_S6_,comdat
	.weak	_ZSt18uninitialized_copyISt13move_iteratorIPPN3hsm5StateEES4_ET0_T_S7_S6_
	.type	_ZSt18uninitialized_copyISt13move_iteratorIPPN3hsm5StateEES4_ET0_T_S7_S6_, @function
_ZSt18uninitialized_copyISt13move_iteratorIPPN3hsm5StateEES4_ET0_T_S7_S6_:
.LFB3536:
	.cfi_startproc
	endbr64
	pushq	%rbp
	.cfi_def_cfa_offset 16
	.cfi_offset 6, -16
	movq	%rsp, %rbp
	.cfi_def_cfa_register 6
	subq	$48, %rsp
	movq	%rdi, -24(%rbp)
	movq	%rsi, -32(%rbp)
	movq	%rdx, -40(%rbp)
	movb	$1, -1(%rbp)
	movq	-40(%rbp), %rdx
	movq	-32(%rbp), %rcx
	movq	-24(%rbp), %rax
	movq	%rcx, %rsi
	movq	%rax, %rdi
	call	_ZNSt20__uninitialized_copyILb1EE13__uninit_copyISt13move_iteratorIPPN3hsm5StateEES6_EET0_T_S9_S8_
	leave
	.cfi_def_cfa 7, 8
	ret
	.cfi_endproc
.LFE3536:
	.size	_ZSt18uninitialized_copyISt13move_iteratorIPPN3hsm5StateEES4_ET0_T_S7_S6_, .-_ZSt18uninitialized_copyISt13move_iteratorIPPN3hsm5StateEES4_ET0_T_S7_S6_
	.section	.text._ZNK9__gnu_cxx13new_allocatorIPN3hsm18StateValueResetterEE11_M_max_sizeEv,"axG",@progbits,_ZNK9__gnu_cxx13new_allocatorIPN3hsm18StateValueResetterEE11_M_max_sizeEv,comdat
	.align 2
	.weak	_ZNK9__gnu_cxx13new_allocatorIPN3hsm18StateValueResetterEE11_M_max_sizeEv
	.type	_ZNK9__gnu_cxx13new_allocatorIPN3hsm18StateValueResetterEE11_M_max_sizeEv, @function
_ZNK9__gnu_cxx13new_allocatorIPN3hsm18StateValueResetterEE11_M_max_sizeEv:
.LFB3560:
	.cfi_startproc
	endbr64
	pushq	%rbp
	.cfi_def_cfa_offset 16
	.cfi_offset 6, -16
	movq	%rsp, %rbp
	.cfi_def_cfa_register 6
	movq	%rdi, -8(%rbp)
	movabsq	$1152921504606846975, %rax
	popq	%rbp
	.cfi_def_cfa 7, 8
	ret
	.cfi_endproc
.LFE3560:
	.size	_ZNK9__gnu_cxx13new_allocatorIPN3hsm18StateValueResetterEE11_M_max_sizeEv, .-_ZNK9__gnu_cxx13new_allocatorIPN3hsm18StateValueResetterEE11_M_max_sizeEv
	.section	.text._ZN9__gnu_cxx13new_allocatorIPN3hsm18StateValueResetterEE8allocateEmPKv,"axG",@progbits,_ZN9__gnu_cxx13new_allocatorIPN3hsm18StateValueResetterEE8allocateEmPKv,comdat
	.align 2
	.weak	_ZN9__gnu_cxx13new_allocatorIPN3hsm18StateValueResetterEE8allocateEmPKv
	.type	_ZN9__gnu_cxx13new_allocatorIPN3hsm18StateValueResetterEE8allocateEmPKv, @function
